SF:C:\Users\esteb\RustroverProjects\Durapack\durapack-cli\src\commands\fec.rs
FN:20,_RNvNtNtCs2rqM760X15B_8durapack8commands3fec13inject_parity
FN:45,_RNCNvNtNtCs2rqM760X15B_8durapack8commands3fec13inject_parity0B7_
FN:77,_RNCNvNtNtCs2rqM760X15B_8durapack8commands3fec13inject_paritys0_0B7_
FN:82,_RNCNvNtNtCs2rqM760X15B_8durapack8commands3fec13inject_paritys1_0B7_
FN:88,_RNCNvNtNtCs2rqM760X15B_8durapack8commands3fec13inject_paritys2_0B7_
FN:158,_RNvNtNtNtCs2rqM760X15B_8durapack8commands3fec5tests21make_durp_with_frames
FN:310,_RNvNtNtNtCs2rqM760X15B_8durapack8commands3fec5testss_34test_inject_parity_no_frames_error
FN:259,_RNvNtNtNtCs2rqM760X15B_8durapack8commands3fec5testss_35test_inject_parity_appends_in_place
FN:282,_RNvNtNtNtCs2rqM760X15B_8durapack8commands3fec5testss_42test_inject_parity_ignores_leftover_frames
FN:221,_RNvNtNtNtCs2rqM760X15B_8durapack8commands3fec5testss_45test_inject_parity_appends_to_new_output_file
FN:181,_RNvNtNtNtCs2rqM760X15B_8durapack8commands3fec5testss_51test_inject_parity_dry_run_writes_sidecar_no_change
FNDA:5,_RNvNtNtCs2rqM760X15B_8durapack8commands3fec13inject_parity
FNDA:0,_RNCNvNtNtCs2rqM760X15B_8durapack8commands3fec13inject_parity0B7_
FNDA:4,_RNCNvNtNtCs2rqM760X15B_8durapack8commands3fec13inject_paritys0_0B7_
FNDA:4,_RNCNvNtNtCs2rqM760X15B_8durapack8commands3fec13inject_paritys1_0B7_
FNDA:0,_RNCNvNtNtCs2rqM760X15B_8durapack8commands3fec13inject_paritys2_0B7_
FNDA:4,_RNvNtNtNtCs2rqM760X15B_8durapack8commands3fec5tests21make_durp_with_frames
FNDA:1,_RNvNtNtNtCs2rqM760X15B_8durapack8commands3fec5testss_34test_inject_parity_no_frames_error
FNDA:1,_RNvNtNtNtCs2rqM760X15B_8durapack8commands3fec5testss_35test_inject_parity_appends_in_place
FNDA:1,_RNvNtNtNtCs2rqM760X15B_8durapack8commands3fec5testss_42test_inject_parity_ignores_leftover_frames
FNDA:1,_RNvNtNtNtCs2rqM760X15B_8durapack8commands3fec5testss_45test_inject_parity_appends_to_new_output_file
FNDA:1,_RNvNtNtNtCs2rqM760X15B_8durapack8commands3fec5testss_51test_inject_parity_dry_run_writes_sidecar_no_change
FNF:11
FNH:9
DA:20,5
DA:21,5
DA:22,5
DA:23,5
DA:24,5
DA:25,5
DA:26,5
DA:27,5
DA:35,5
DA:36,0
DA:40,5
DA:41,0
DA:42,0
DA:43,0
DA:45,5
DA:48,5
DA:49,5
DA:50,1
DA:51,4
DA:53,4
DA:54,4
DA:55,4
DA:56,0
DA:57,4
DA:67,4
DA:70,4
DA:72,4
DA:73,4
DA:74,4
DA:75,4
DA:76,4
DA:77,4
DA:78,4
DA:79,4
DA:80,4
DA:81,4
DA:82,4
DA:83,4
DA:85,19
DA:86,15
DA:87,15
DA:88,7
DA:89,0
DA:90,0
DA:91,0
DA:93,0
DA:94,7
DA:95,7
DA:96,14
DA:98,7
DA:99,7
DA:100,7
DA:102,7
DA:103,7
DA:104,7
DA:105,7
DA:106,7
DA:107,4
DA:108,4
DA:109,7
DA:110,7
DA:112,7
DA:113,7
DA:114,7
DA:115,7
DA:116,7
DA:117,7
DA:118,7
DA:119,8
DA:122,4
DA:124,2
DA:125,1
DA:126,1
DA:127,1
DA:128,1
DA:129,1
DA:131,0
DA:133,2
DA:136,4
DA:137,3
DA:138,3
DA:139,3
DA:140,0
DA:142,0
DA:144,1
DA:146,4
DA:148,5
DA:158,4
DA:161,4
DA:162,4
DA:163,15
DA:164,15
DA:165,15
DA:166,4
DA:167,11
DA:169,15
DA:170,15
DA:171,15
DA:172,15
DA:173,15
DA:174,15
DA:176,4
DA:177,4
DA:181,1
DA:182,1
DA:183,1
DA:184,1
DA:186,1
DA:187,1
DA:188,1
DA:191,1
DA:192,1
DA:193,1
DA:196,1
DA:199,1
DA:201,1
DA:202,1
DA:205,1
DA:206,1
DA:207,1
DA:208,1
DA:209,1
DA:210,1
DA:211,1
DA:212,1
DA:213,1
DA:214,1
DA:215,1
DA:216,1
DA:217,1
DA:221,1
DA:222,1
DA:223,1
DA:224,1
DA:225,1
DA:227,1
DA:228,1
DA:229,1
DA:231,1
DA:232,1
DA:233,1
DA:236,1
DA:239,1
DA:241,1
DA:242,1
DA:245,1
DA:246,1
DA:247,1
DA:248,1
DA:249,1
DA:250,1
DA:251,1
DA:252,4
DA:253,3
DA:255,1
DA:259,1
DA:260,1
DA:261,1
DA:262,1
DA:263,1
DA:264,1
DA:266,1
DA:267,1
DA:268,1
DA:271,1
DA:274,1
DA:276,1
DA:277,1
DA:278,1
DA:282,1
DA:283,1
DA:284,1
DA:285,1
DA:288,1
DA:289,1
DA:291,1
DA:292,1
DA:293,1
DA:296,1
DA:299,1
DA:301,1
DA:302,1
DA:303,1
DA:304,1
DA:305,1
DA:306,1
DA:310,1
DA:311,1
DA:312,1
DA:313,1
DA:314,1
DA:315,1
DA:316,1
DA:317,1
DA:318,1
BRF:0
BRH:0
LF:200
LH:185
end_of_record
SF:C:\Users\esteb\RustroverProjects\Durapack\durapack-cli\src\commands\pack.rs
FN:53,_RNCNvNtNtCs2rqM760X15B_8durapack8commands4pack11execute_ext0B7_
FN:111,_RNCNvNtNtCs2rqM760X15B_8durapack8commands4pack11execute_exts2_0B7_
FN:129,_RNCNvNtNtCs2rqM760X15B_8durapack8commands4pack11execute_exts3_0B7_
FN:134,_RNCNvNtNtCs2rqM760X15B_8durapack8commands4pack11execute_exts4_0B7_
FN:214,_RNCNvNtNtCs2rqM760X15B_8durapack8commands4pack11execute_exts5_0B7_
FN:220,_RNCNvNtNtCs2rqM760X15B_8durapack8commands4pack11execute_exts6_0B7_
FN:221,_RNCNvNtNtCs2rqM760X15B_8durapack8commands4pack11execute_exts7_0B7_
FN:224,_RNCNvNtNtCs2rqM760X15B_8durapack8commands4pack11execute_exts8_0B7_
FN:60,_RNCNvNtNtCs2rqM760X15B_8durapack8commands4pack11execute_exts_0B7_
FN:32,_RNvNtNtCs2rqM760X15B_8durapack8commands4pack11execute_ext
FN:16,_RNvNtNtCs2rqM760X15B_8durapack8commands4pack7execute
FNDA:0,_RNCNvNtNtCs2rqM760X15B_8durapack8commands4pack11execute_ext0B7_
FNDA:0,_RNCNvNtNtCs2rqM760X15B_8durapack8commands4pack11execute_exts2_0B7_
FNDA:0,_RNCNvNtNtCs2rqM760X15B_8durapack8commands4pack11execute_exts3_0B7_
FNDA:0,_RNCNvNtNtCs2rqM760X15B_8durapack8commands4pack11execute_exts4_0B7_
FNDA:0,_RNCNvNtNtCs2rqM760X15B_8durapack8commands4pack11execute_exts5_0B7_
FNDA:0,_RNCNvNtNtCs2rqM760X15B_8durapack8commands4pack11execute_exts6_0B7_
FNDA:0,_RNCNvNtNtCs2rqM760X15B_8durapack8commands4pack11execute_exts7_0B7_
FNDA:0,_RNCNvNtNtCs2rqM760X15B_8durapack8commands4pack11execute_exts8_0B7_
FNDA:0,_RNCNvNtNtCs2rqM760X15B_8durapack8commands4pack11execute_exts_0B7_
FNDA:0,_RNvNtNtCs2rqM760X15B_8durapack8commands4pack11execute_ext
FNDA:0,_RNvNtNtCs2rqM760X15B_8durapack8commands4pack7execute
FNF:11
FNH:0
DA:16,0
DA:17,0
DA:18,0
DA:19,0
DA:20,0
DA:21,0
DA:23,0
DA:24,0
DA:26,0
DA:27,0
DA:29,0
DA:32,0
DA:33,0
DA:34,0
DA:35,0
DA:36,0
DA:37,0
DA:38,0
DA:39,0
DA:40,0
DA:41,0
DA:42,0
DA:43,0
DA:44,0
DA:47,0
DA:48,0
DA:49,0
DA:50,0
DA:52,0
DA:53,0
DA:57,0
DA:58,0
DA:59,0
DA:60,0
DA:61,0
DA:62,0
DA:63,0
DA:65,0
DA:66,0
DA:69,0
DA:71,0
DA:72,0
DA:82,0
DA:85,0
DA:86,0
DA:87,0
DA:88,0
DA:89,0
DA:91,0
DA:92,0
DA:94,0
DA:96,0
DA:99,0
DA:100,0
DA:103,0
DA:104,0
DA:106,0
DA:107,0
DA:110,0
DA:111,0
DA:113,0
DA:114,0
DA:115,0
DA:117,0
DA:118,0
DA:119,0
DA:121,0
DA:122,0
DA:123,0
DA:124,0
DA:125,0
DA:127,0
DA:128,0
DA:129,0
DA:131,0
DA:133,0
DA:134,0
DA:136,0
DA:137,0
DA:140,0
DA:141,0
DA:142,0
DA:146,0
DA:147,0
DA:148,0
DA:149,0
DA:150,0
DA:151,0
DA:152,0
DA:153,0
DA:155,0
DA:156,0
DA:157,0
DA:158,0
DA:159,0
DA:160,0
DA:161,0
DA:162,0
DA:163,0
DA:164,0
DA:165,0
DA:166,0
DA:167,0
DA:168,0
DA:169,0
DA:171,0
DA:172,0
DA:173,0
DA:174,0
DA:175,0
DA:176,0
DA:178,0
DA:179,0
DA:180,0
DA:183,0
DA:184,0
DA:185,0
DA:186,0
DA:187,0
DA:188,0
DA:189,0
DA:190,0
DA:191,0
DA:193,0
DA:194,0
DA:195,0
DA:197,0
DA:198,0
DA:204,0
DA:205,0
DA:206,0
DA:209,0
DA:210,0
DA:211,0
DA:213,0
DA:214,0
DA:218,0
DA:219,0
DA:220,0
DA:221,0
DA:222,0
DA:223,0
DA:224,0
DA:225,0
DA:226,0
DA:228,0
DA:230,0
DA:231,0
DA:233,0
DA:234,0
DA:235,0
DA:236,0
DA:239,0
DA:240,0
BRF:0
BRH:0
LF:163
LH:0
end_of_record
SF:C:\Users\esteb\RustroverProjects\Durapack\durapack-cli\src\commands\scan.rs
FN:45,_RINvNtNtCs2rqM760X15B_8durapack8commands4scan11write_jsonlpEB6_
FN:72,_RNCNvNtNtCs2rqM760X15B_8durapack8commands4scan11execute_ext0B7_
FN:159,_RNCNvNtNtCs2rqM760X15B_8durapack8commands4scan11execute_exts0_0B7_
FN:183,_RNCNvNtNtCs2rqM760X15B_8durapack8commands4scan11execute_exts1_0B7_
FN:184,_RNCNvNtNtCs2rqM760X15B_8durapack8commands4scan11execute_exts2_0B7_
FN:206,_RNCNvNtNtCs2rqM760X15B_8durapack8commands4scan11execute_exts4_0B7_
FN:231,_RNCNvNtNtCs2rqM760X15B_8durapack8commands4scan11execute_exts5_0B7_
FN:110,_RNCNvNtNtCs2rqM760X15B_8durapack8commands4scan11execute_exts_0B7_
FN:56,_RNvNtNtCs2rqM760X15B_8durapack8commands4scan11execute_ext
FN:52,_RNvNtNtCs2rqM760X15B_8durapack8commands4scan7execute
FNDA:0,_RINvNtNtCs2rqM760X15B_8durapack8commands4scan11write_jsonlpEB6_
FNDA:0,_RNCNvNtNtCs2rqM760X15B_8durapack8commands4scan11execute_ext0B7_
FNDA:0,_RNCNvNtNtCs2rqM760X15B_8durapack8commands4scan11execute_exts0_0B7_
FNDA:0,_RNCNvNtNtCs2rqM760X15B_8durapack8commands4scan11execute_exts1_0B7_
FNDA:0,_RNCNvNtNtCs2rqM760X15B_8durapack8commands4scan11execute_exts2_0B7_
FNDA:0,_RNCNvNtNtCs2rqM760X15B_8durapack8commands4scan11execute_exts4_0B7_
FNDA:0,_RNCNvNtNtCs2rqM760X15B_8durapack8commands4scan11execute_exts5_0B7_
FNDA:0,_RNCNvNtNtCs2rqM760X15B_8durapack8commands4scan11execute_exts_0B7_
FNDA:0,_RNvNtNtCs2rqM760X15B_8durapack8commands4scan11execute_ext
FNDA:0,_RNvNtNtCs2rqM760X15B_8durapack8commands4scan7execute
FNF:10
FNH:0
DA:45,0
DA:46,0
DA:47,0
DA:48,0
DA:49,0
DA:52,0
DA:53,0
DA:54,0
DA:56,0
DA:57,0
DA:58,0
DA:59,0
DA:60,0
DA:61,0
DA:62,0
DA:63,0
DA:64,0
DA:67,0
DA:68,0
DA:69,0
DA:70,0
DA:72,0
DA:75,0
DA:78,0
DA:80,0
DA:81,0
DA:82,0
DA:84,0
DA:87,0
DA:89,0
DA:91,0
DA:92,0
DA:93,0
DA:97,0
DA:98,0
DA:99,0
DA:100,0
DA:101,0
DA:102,0
DA:103,0
DA:104,0
DA:105,0
DA:106,0
DA:107,0
DA:110,0
DA:111,0
DA:113,0
DA:114,0
DA:115,0
DA:116,0
DA:117,0
DA:118,0
DA:119,0
DA:120,0
DA:121,0
DA:122,0
DA:123,0
DA:124,0
DA:125,0
DA:126,0
DA:127,0
DA:128,0
DA:132,0
DA:133,0
DA:134,0
DA:135,0
DA:136,0
DA:137,0
DA:138,0
DA:139,0
DA:140,0
DA:141,0
DA:142,0
DA:143,0
DA:144,0
DA:145,0
DA:149,0
DA:150,0
DA:151,0
DA:152,0
DA:153,0
DA:154,0
DA:155,0
DA:156,0
DA:157,0
DA:158,0
DA:159,0
DA:161,0
DA:163,0
DA:164,0
DA:167,0
DA:168,0
DA:169,0
DA:170,0
DA:171,0
DA:172,0
DA:173,0
DA:174,0
DA:176,0
DA:177,0
DA:178,0
DA:181,0
DA:182,0
DA:183,0
DA:184,0
DA:185,0
DA:186,0
DA:187,0
DA:188,0
DA:189,0
DA:190,0
DA:191,0
DA:192,0
DA:193,0
DA:194,0
DA:195,0
DA:197,0
DA:199,0
DA:200,0
DA:202,0
DA:203,0
DA:204,0
DA:205,0
DA:206,0
DA:207,0
DA:211,0
DA:212,0
DA:213,0
DA:214,0
DA:215,0
DA:216,0
DA:217,0
DA:221,0
DA:222,0
DA:223,0
DA:224,0
DA:225,0
DA:226,0
DA:227,0
DA:228,0
DA:229,0
DA:230,0
DA:231,0
DA:233,0
DA:235,0
DA:236,0
BRF:0
BRH:0
LF:153
LH:0
end_of_record
SF:C:\Users\esteb\RustroverProjects\Durapack\durapack-cli\src\commands\timeline.rs
FN:103,_RNCNvNtNtCs2rqM760X15B_8durapack8commands8timeline11execute_ext0B7_
FN:132,_RNCNvNtNtCs2rqM760X15B_8durapack8commands8timeline11execute_exts1_0B7_
FN:198,_RNCNvNtNtCs2rqM760X15B_8durapack8commands8timeline11execute_exts2_0B7_
FN:209,_RNCNvNtNtCs2rqM760X15B_8durapack8commands8timeline11execute_exts3_0B7_
FN:222,_RNCNvNtNtCs2rqM760X15B_8durapack8commands8timeline11execute_exts4_0B7_
FN:241,_RNCNvNtNtCs2rqM760X15B_8durapack8commands8timeline11execute_exts5_0B7_
FN:250,_RNCNvNtNtCs2rqM760X15B_8durapack8commands8timeline11execute_exts6_0B7_
FN:257,_RNCNvNtNtCs2rqM760X15B_8durapack8commands8timeline11execute_exts7_0B7_
FN:262,_RNCNvNtNtCs2rqM760X15B_8durapack8commands8timeline11execute_exts8_0B7_
FN:125,_RNCNvNtNtCs2rqM760X15B_8durapack8commands8timeline11execute_exts_0B7_
FN:87,_RNvNtNtCs2rqM760X15B_8durapack8commands8timeline11execute_ext
FN:83,_RNvNtNtCs2rqM760X15B_8durapack8commands8timeline7execute
FNDA:0,_RNCNvNtNtCs2rqM760X15B_8durapack8commands8timeline11execute_ext0B7_
FNDA:0,_RNCNvNtNtCs2rqM760X15B_8durapack8commands8timeline11execute_exts1_0B7_
FNDA:0,_RNCNvNtNtCs2rqM760X15B_8durapack8commands8timeline11execute_exts2_0B7_
FNDA:0,_RNCNvNtNtCs2rqM760X15B_8durapack8commands8timeline11execute_exts3_0B7_
FNDA:0,_RNCNvNtNtCs2rqM760X15B_8durapack8commands8timeline11execute_exts4_0B7_
FNDA:0,_RNCNvNtNtCs2rqM760X15B_8durapack8commands8timeline11execute_exts5_0B7_
FNDA:0,_RNCNvNtNtCs2rqM760X15B_8durapack8commands8timeline11execute_exts6_0B7_
FNDA:0,_RNCNvNtNtCs2rqM760X15B_8durapack8commands8timeline11execute_exts7_0B7_
FNDA:0,_RNCNvNtNtCs2rqM760X15B_8durapack8commands8timeline11execute_exts8_0B7_
FNDA:0,_RNCNvNtNtCs2rqM760X15B_8durapack8commands8timeline11execute_exts_0B7_
FNDA:0,_RNvNtNtCs2rqM760X15B_8durapack8commands8timeline11execute_ext
FNDA:0,_RNvNtNtCs2rqM760X15B_8durapack8commands8timeline7execute
FNF:12
FNH:0
DA:83,0
DA:84,0
DA:85,0
DA:87,0
DA:88,0
DA:89,0
DA:90,0
DA:91,0
DA:92,0
DA:93,0
DA:94,0
DA:95,0
DA:98,0
DA:99,0
DA:100,0
DA:101,0
DA:103,0
DA:107,0
DA:109,0
DA:110,0
DA:111,0
DA:113,0
DA:123,0
DA:124,0
DA:125,0
DA:126,0
DA:127,0
DA:128,0
DA:129,0
DA:132,0
DA:133,0
DA:135,0
DA:136,0
DA:137,0
DA:138,0
DA:139,0
DA:142,0
DA:144,0
DA:145,0
DA:147,0
DA:150,0
DA:151,0
DA:152,0
DA:153,0
DA:156,0
DA:157,0
DA:158,0
DA:159,0
DA:160,0
DA:161,0
DA:163,0
DA:165,0
DA:166,0
DA:167,0
DA:168,0
DA:170,0
DA:171,0
DA:172,0
DA:173,0
DA:175,0
DA:177,0
DA:178,0
DA:179,0
DA:180,0
DA:181,0
DA:182,0
DA:184,0
DA:186,0
DA:187,0
DA:190,0
DA:191,0
DA:194,0
DA:195,0
DA:196,0
DA:197,0
DA:198,0
DA:199,0
DA:200,0
DA:201,0
DA:202,0
DA:204,0
DA:205,0
DA:206,0
DA:207,0
DA:208,0
DA:209,0
DA:210,0
DA:211,0
DA:212,0
DA:213,0
DA:215,0
DA:218,0
DA:219,0
DA:220,0
DA:221,0
DA:222,0
DA:223,0
DA:224,0
DA:225,0
DA:227,0
DA:228,0
DA:229,0
DA:230,0
DA:231,0
DA:232,0
DA:233,0
DA:235,0
DA:236,0
DA:237,0
DA:238,0
DA:239,0
DA:240,0
DA:241,0
DA:242,0
DA:243,0
DA:244,0
DA:245,0
DA:246,0
DA:247,0
DA:248,0
DA:249,0
DA:250,0
DA:251,0
DA:252,0
DA:253,0
DA:254,0
DA:255,0
DA:256,0
DA:257,0
DA:258,0
DA:259,0
DA:260,0
DA:261,0
DA:262,0
DA:263,0
DA:264,0
DA:265,0
DA:266,0
DA:267,0
DA:270,0
DA:271,0
DA:272,0
DA:273,0
DA:274,0
DA:275,0
DA:276,0
DA:277,0
DA:278,0
DA:279,0
DA:280,0
DA:281,0
DA:282,0
DA:283,0
DA:284,0
DA:285,0
DA:287,0
DA:290,0
DA:291,0
DA:292,0
DA:293,0
DA:294,0
DA:295,0
DA:296,0
DA:297,0
DA:298,0
DA:299,0
DA:300,0
DA:301,0
DA:303,0
DA:304,0
DA:305,0
DA:306,0
DA:307,0
DA:308,0
DA:309,0
DA:312,0
DA:313,0
DA:314,0
DA:316,0
DA:317,0
DA:320,0
DA:321,0
DA:322,0
DA:323,0
DA:324,0
DA:325,0
DA:326,0
DA:327,0
DA:329,0
DA:330,0
BRF:0
BRH:0
LF:195
LH:0
end_of_record
SF:C:\Users\esteb\RustroverProjects\Durapack\durapack-cli\src\commands\verify.rs
FN:32,_RNCNvNtNtCs2rqM760X15B_8durapack8commands6verify11execute_ext0B7_
FN:108,_RNCNvNtNtCs2rqM760X15B_8durapack8commands6verify11execute_exts0_0B7_
FN:47,_RNCNvNtNtCs2rqM760X15B_8durapack8commands6verify11execute_exts_0B7_
FN:18,_RNvNtNtCs2rqM760X15B_8durapack8commands6verify11execute_ext
FN:14,_RNvNtNtCs2rqM760X15B_8durapack8commands6verify7execute
FNDA:0,_RNCNvNtNtCs2rqM760X15B_8durapack8commands6verify11execute_ext0B7_
FNDA:0,_RNCNvNtNtCs2rqM760X15B_8durapack8commands6verify11execute_exts0_0B7_
FNDA:0,_RNCNvNtNtCs2rqM760X15B_8durapack8commands6verify11execute_exts_0B7_
FNDA:0,_RNvNtNtCs2rqM760X15B_8durapack8commands6verify11execute_ext
FNDA:0,_RNvNtNtCs2rqM760X15B_8durapack8commands6verify7execute
FNF:5
FNH:0
DA:14,0
DA:15,0
DA:16,0
DA:18,0
DA:19,0
DA:20,0
DA:21,0
DA:22,0
DA:23,0
DA:24,0
DA:27,0
DA:28,0
DA:29,0
DA:30,0
DA:32,0
DA:36,0
DA:38,0
DA:39,0
DA:40,0
DA:41,0
DA:43,0
DA:44,0
DA:47,0
DA:50,0
DA:51,0
DA:53,0
DA:54,0
DA:55,0
DA:56,0
DA:57,0
DA:58,0
DA:63,0
DA:64,0
DA:65,0
DA:66,0
DA:67,0
DA:68,0
DA:71,0
DA:73,0
DA:74,0
DA:75,0
DA:76,0
DA:78,0
DA:79,0
DA:82,0
DA:84,0
DA:85,0
DA:86,0
DA:87,0
DA:88,0
DA:89,0
DA:90,0
DA:91,0
DA:93,0
DA:94,0
DA:99,0
DA:107,0
DA:108,0
DA:109,0
DA:110,0
DA:111,0
DA:114,0
DA:115,0
DA:116,0
DA:117,0
DA:118,0
DA:119,0
DA:123,0
DA:131,0
DA:134,0
DA:135,0
DA:136,0
DA:137,0
DA:138,0
DA:139,0
DA:142,0
DA:143,0
DA:144,0
DA:145,0
DA:146,0
DA:147,0
DA:148,0
DA:149,0
DA:150,0
DA:151,0
DA:152,0
DA:153,0
DA:154,0
DA:156,0
DA:157,0
BRF:0
BRH:0
LF:93
LH:0
end_of_record
SF:C:\Users\esteb\RustroverProjects\Durapack\durapack-cli\src\main.rs
FN:178,_RNvCs2rqM760X15B_8durapack4main
FNDA:0,_RNvCs2rqM760X15B_8durapack4main
FNF:1
FNH:0
DA:178,0
DA:179,0
DA:182,0
DA:183,0
DA:185,0
DA:188,0
DA:189,0
DA:190,0
DA:191,0
DA:194,0
DA:196,0
DA:197,0
DA:198,0
DA:199,0
DA:200,0
DA:201,0
DA:202,0
DA:203,0
DA:204,0
DA:205,0
DA:206,0
DA:207,0
DA:208,0
DA:209,0
DA:210,0
DA:211,0
DA:212,0
DA:213,0
DA:214,0
DA:215,0
DA:216,0
DA:217,0
DA:221,0
DA:222,0
DA:223,0
DA:224,0
DA:225,0
DA:226,0
DA:227,0
DA:228,0
DA:229,0
DA:230,0
DA:231,0
DA:232,0
DA:233,0
DA:237,0
DA:238,0
DA:239,0
DA:240,0
DA:241,0
DA:242,0
DA:243,0
DA:244,0
DA:245,0
DA:246,0
DA:247,0
DA:248,0
DA:249,0
DA:253,0
DA:254,0
DA:255,0
DA:256,0
DA:257,0
DA:260,0
DA:261,0
DA:262,0
DA:263,0
DA:264,0
DA:265,0
DA:266,0
DA:267,0
DA:268,0
DA:269,0
DA:270,0
DA:271,0
DA:272,0
DA:275,0
BRF:0
BRH:0
LF:77
LH:0
end_of_record
SF:C:\Users\esteb\RustroverProjects\Durapack\durapack-core\src\constants.rs
FN:55,_RNvMNtCs27HJmF5ukpX_13durapack_core9constantsNtB2_11TrailerType4size
FN:112,_RNvMs_NtCs27HJmF5ukpX_13durapack_core9constantsNtB4_10FrameFlags10has_blake3
FN:107,_RNvMs_NtCs27HJmF5ukpX_13durapack_core9constantsNtB4_10FrameFlags10has_crc32c
FN:127,_RNvMs_NtCs27HJmF5ukpX_13durapack_core9constantsNtB4_10FrameFlags12has_preamble
FN:142,_RNvMs_NtCs27HJmF5ukpX_13durapack_core9constantsNtB4_10FrameFlags12has_skiplist
FN:147,_RNvMs_NtCs27HJmF5ukpX_13durapack_core9constantsNtB4_10FrameFlags12trailer_type
FN:137,_RNvMs_NtCs27HJmF5ukpX_13durapack_core9constantsNtB4_10FrameFlags13is_superframe
FN:132,_RNvMs_NtCs27HJmF5ukpX_13durapack_core9constantsNtB4_10FrameFlags15has_sync_prefix
FN:97,_RNvMs_NtCs27HJmF5ukpX_13durapack_core9constantsNtB4_10FrameFlags3new
FN:102,_RNvMs_NtCs27HJmF5ukpX_13durapack_core9constantsNtB4_10FrameFlags5as_u8
FN:122,_RNvMs_NtCs27HJmF5ukpX_13durapack_core9constantsNtB4_10FrameFlags7is_last
FN:117,_RNvMs_NtCs27HJmF5ukpX_13durapack_core9constantsNtB4_10FrameFlags8is_first
FN:159,_RNvXs0_NtCs27HJmF5ukpX_13durapack_core9constantsNtB5_10FrameFlagsNtNtCsepugsivA0dq_4core7default7Default7default
FN:127,_RNvMs_NtCsgL3VURY9zOY_13durapack_core9constantsNtB4_10FrameFlags12has_preamble
FN:142,_RNvMs_NtCsgL3VURY9zOY_13durapack_core9constantsNtB4_10FrameFlags12has_skiplist
FN:137,_RNvMs_NtCsgL3VURY9zOY_13durapack_core9constantsNtB4_10FrameFlags13is_superframe
FN:132,_RNvMs_NtCsgL3VURY9zOY_13durapack_core9constantsNtB4_10FrameFlags15has_sync_prefix
FN:122,_RNvMs_NtCsgL3VURY9zOY_13durapack_core9constantsNtB4_10FrameFlags7is_last
FN:117,_RNvMs_NtCsgL3VURY9zOY_13durapack_core9constantsNtB4_10FrameFlags8is_first
FN:55,_RNvMNtCsgL3VURY9zOY_13durapack_core9constantsNtB2_11TrailerType4size
FN:112,_RNvMs_NtCsgL3VURY9zOY_13durapack_core9constantsNtB4_10FrameFlags10has_blake3
FN:107,_RNvMs_NtCsgL3VURY9zOY_13durapack_core9constantsNtB4_10FrameFlags10has_crc32c
FN:147,_RNvMs_NtCsgL3VURY9zOY_13durapack_core9constantsNtB4_10FrameFlags12trailer_type
FN:97,_RNvMs_NtCsgL3VURY9zOY_13durapack_core9constantsNtB4_10FrameFlags3new
FN:102,_RNvMs_NtCsgL3VURY9zOY_13durapack_core9constantsNtB4_10FrameFlags5as_u8
FN:159,_RNvXs0_NtCsgL3VURY9zOY_13durapack_core9constantsNtB5_10FrameFlagsNtNtCsepugsivA0dq_4core7default7Default7default
FNDA:4951,_RNvMNtCs27HJmF5ukpX_13durapack_core9constantsNtB2_11TrailerType4size
FNDA:7817,_RNvMs_NtCs27HJmF5ukpX_13durapack_core9constantsNtB4_10FrameFlags10has_blake3
FNDA:7359,_RNvMs_NtCs27HJmF5ukpX_13durapack_core9constantsNtB4_10FrameFlags10has_crc32c
FNDA:0,_RNvMs_NtCs27HJmF5ukpX_13durapack_core9constantsNtB4_10FrameFlags12has_preamble
FNDA:0,_RNvMs_NtCs27HJmF5ukpX_13durapack_core9constantsNtB4_10FrameFlags12has_skiplist
FNDA:7817,_RNvMs_NtCs27HJmF5ukpX_13durapack_core9constantsNtB4_10FrameFlags12trailer_type
FNDA:0,_RNvMs_NtCs27HJmF5ukpX_13durapack_core9constantsNtB4_10FrameFlags13is_superframe
FNDA:0,_RNvMs_NtCs27HJmF5ukpX_13durapack_core9constantsNtB4_10FrameFlags15has_sync_prefix
FNDA:4948,_RNvMs_NtCs27HJmF5ukpX_13durapack_core9constantsNtB4_10FrameFlags3new
FNDA:9935,_RNvMs_NtCs27HJmF5ukpX_13durapack_core9constantsNtB4_10FrameFlags5as_u8
FNDA:0,_RNvMs_NtCs27HJmF5ukpX_13durapack_core9constantsNtB4_10FrameFlags7is_last
FNDA:0,_RNvMs_NtCs27HJmF5ukpX_13durapack_core9constantsNtB4_10FrameFlags8is_first
FNDA:259,_RNvXs0_NtCs27HJmF5ukpX_13durapack_core9constantsNtB5_10FrameFlagsNtNtCsepugsivA0dq_4core7default7Default7default
FNDA:0,_RNvMs_NtCsgL3VURY9zOY_13durapack_core9constantsNtB4_10FrameFlags12has_preamble
FNDA:0,_RNvMs_NtCsgL3VURY9zOY_13durapack_core9constantsNtB4_10FrameFlags12has_skiplist
FNDA:0,_RNvMs_NtCsgL3VURY9zOY_13durapack_core9constantsNtB4_10FrameFlags13is_superframe
FNDA:0,_RNvMs_NtCsgL3VURY9zOY_13durapack_core9constantsNtB4_10FrameFlags15has_sync_prefix
FNDA:0,_RNvMs_NtCsgL3VURY9zOY_13durapack_core9constantsNtB4_10FrameFlags7is_last
FNDA:0,_RNvMs_NtCsgL3VURY9zOY_13durapack_core9constantsNtB4_10FrameFlags8is_first
FNDA:31,_RNvMNtCsgL3VURY9zOY_13durapack_core9constantsNtB2_11TrailerType4size
FNDA:48,_RNvMs_NtCsgL3VURY9zOY_13durapack_core9constantsNtB4_10FrameFlags10has_blake3
FNDA:44,_RNvMs_NtCsgL3VURY9zOY_13durapack_core9constantsNtB4_10FrameFlags10has_crc32c
FNDA:48,_RNvMs_NtCsgL3VURY9zOY_13durapack_core9constantsNtB4_10FrameFlags12trailer_type
FNDA:29,_RNvMs_NtCsgL3VURY9zOY_13durapack_core9constantsNtB4_10FrameFlags3new
FNDA:85,_RNvMs_NtCsgL3VURY9zOY_13durapack_core9constantsNtB4_10FrameFlags5as_u8
FNDA:16,_RNvXs0_NtCsgL3VURY9zOY_13durapack_core9constantsNtB5_10FrameFlagsNtNtCsepugsivA0dq_4core7default7Default7default
FNF:13
FNH:7
DA:55,4982
DA:56,4982
DA:57,66
DA:58,4485
DA:59,431
DA:61,4982
DA:97,4977
DA:98,4977
DA:99,4977
DA:102,10020
DA:103,10020
DA:104,10020
DA:107,7403
DA:108,7403
DA:109,7403
DA:112,7865
DA:113,7865
DA:114,7865
DA:117,0
DA:118,0
DA:119,0
DA:122,0
DA:123,0
DA:124,0
DA:127,0
DA:128,0
DA:129,0
DA:132,0
DA:133,0
DA:134,0
DA:137,0
DA:138,0
DA:139,0
DA:142,0
DA:143,0
DA:144,0
DA:147,7865
DA:148,7865
DA:149,462
DA:150,7403
DA:151,7291
DA:153,112
DA:155,7865
DA:159,275
DA:160,275
DA:161,275
BRF:0
BRH:0
LF:46
LH:28
end_of_record
SF:C:\Users\esteb\RustroverProjects\Durapack\durapack-core\src\decoder.rs
FN:129,_RNvNtCs27HJmF5ukpX_13durapack_core7decoder23decode_frame_from_bytes
FN:147,_RNvNtCs27HJmF5ukpX_13durapack_core7decoder33decode_frame_from_bytes_zero_copy
FN:22,_RINvNtCs27HJmF5ukpX_13durapack_core7decoder12decode_frameINtNtNtCs6wH60Dmcu4w_3std2io6cursor6CursorRShEEB4_
FN:384,_RNvNtNtCsgL3VURY9zOY_13durapack_core7decoder5testss_15test_round_trip
FN:359,_RNvNtNtCsgL3VURY9zOY_13durapack_core7decoder5testss_20test_decode_with_crc
FN:376,_RNvNtNtCsgL3VURY9zOY_13durapack_core7decoder5testss_22test_decode_bad_marker
FN:347,_RNvNtNtCsgL3VURY9zOY_13durapack_core7decoder5testss_24test_decode_simple_frame
FN:281,_RINvNtCsgL3VURY9zOY_13durapack_core7decoder16try_decode_framepEB4_
FN:147,_RNvNtCsgL3VURY9zOY_13durapack_core7decoder33decode_frame_from_bytes_zero_copy
FN:22,_RINvNtCsgL3VURY9zOY_13durapack_core7decoder12decode_frameINtNtNtCs6wH60Dmcu4w_3std2io6cursor6CursorRShEEB4_
FN:129,_RNvNtCsgL3VURY9zOY_13durapack_core7decoder23decode_frame_from_bytes
FNDA:1821,_RNvNtCs27HJmF5ukpX_13durapack_core7decoder23decode_frame_from_bytes
FNDA:0,_RNvNtCs27HJmF5ukpX_13durapack_core7decoder33decode_frame_from_bytes_zero_copy
FNDA:1821,_RINvNtCs27HJmF5ukpX_13durapack_core7decoder12decode_frameINtNtNtCs6wH60Dmcu4w_3std2io6cursor6CursorRShEEB4_
FNDA:1,_RNvNtNtCsgL3VURY9zOY_13durapack_core7decoder5testss_15test_round_trip
FNDA:1,_RNvNtNtCsgL3VURY9zOY_13durapack_core7decoder5testss_20test_decode_with_crc
FNDA:1,_RNvNtNtCsgL3VURY9zOY_13durapack_core7decoder5testss_22test_decode_bad_marker
FNDA:1,_RNvNtNtCsgL3VURY9zOY_13durapack_core7decoder5testss_24test_decode_simple_frame
FNDA:0,_RINvNtCsgL3VURY9zOY_13durapack_core7decoder16try_decode_framepEB4_
FNDA:0,_RNvNtCsgL3VURY9zOY_13durapack_core7decoder33decode_frame_from_bytes_zero_copy
FNDA:11,_RINvNtCsgL3VURY9zOY_13durapack_core7decoder12decode_frameINtNtNtCs6wH60Dmcu4w_3std2io6cursor6CursorRShEEB4_
FNDA:11,_RNvNtCsgL3VURY9zOY_13durapack_core7decoder23decode_frame_from_bytes
FNF:8
FNH:6
DA:22,1832
DA:24,1832
DA:25,1832
DA:27,1831
DA:28,258
DA:29,1573
DA:32,1573
DA:33,1573
DA:35,1572
DA:36,1572
DA:37,0
DA:38,1572
DA:40,1572
DA:41,1572
DA:42,1572
DA:43,1572
DA:44,1572
DA:45,1572
DA:46,1572
DA:47,1572
DA:48,1572
DA:49,1572
DA:51,1572
DA:52,1572
DA:54,1572
DA:55,1572
DA:56,1572
DA:57,1572
DA:58,1572
DA:59,1572
DA:61,1572
DA:64,1572
DA:65,1572
DA:66,1572
DA:67,0
DA:68,1572
DA:71,1572
DA:72,1572
DA:75,1572
DA:76,1572
DA:79,1572
DA:80,1572
DA:81,24
DA:83,1532
DA:84,1532
DA:85,1532
DA:88,1532
DA:89,1532
DA:90,1532
DA:91,1532
DA:93,1532
DA:95,1532
DA:96,1
DA:97,1531
DA:99,1531
DA:102,16
DA:103,16
DA:106,16
DA:107,16
DA:108,16
DA:109,16
DA:111,16
DA:113,16
DA:114,0
DA:115,16
DA:117,16
DA:121,1571
DA:122,1571
DA:123,1571
DA:124,1571
DA:125,1571
DA:126,1832
DA:129,1832
DA:132,1832
DA:133,1832
DA:140,1832
DA:147,0
DA:149,0
DA:150,0
DA:151,0
DA:152,0
DA:153,0
DA:154,0
DA:157,0
DA:158,0
DA:159,0
DA:160,0
DA:161,0
DA:164,0
DA:166,0
DA:167,0
DA:168,0
DA:169,0
DA:171,0
DA:172,0
DA:173,0
DA:174,0
DA:175,0
DA:176,0
DA:177,0
DA:178,0
DA:179,0
DA:180,0
DA:182,0
DA:183,0
DA:185,0
DA:186,0
DA:187,0
DA:188,0
DA:189,0
DA:190,0
DA:192,0
DA:195,0
DA:196,0
DA:197,0
DA:198,0
DA:199,0
DA:200,0
DA:201,0
DA:202,0
DA:203,0
DA:204,0
DA:205,0
DA:206,0
DA:207,0
DA:208,0
DA:211,0
DA:212,0
DA:215,0
DA:216,0
DA:217,0
DA:218,0
DA:221,0
DA:222,0
DA:223,0
DA:224,0
DA:226,0
DA:229,0
DA:230,0
DA:232,0
DA:233,0
DA:234,0
DA:235,0
DA:236,0
DA:237,0
DA:238,0
DA:239,0
DA:240,0
DA:241,0
DA:242,0
DA:243,0
DA:244,0
DA:245,0
DA:246,0
DA:247,0
DA:250,0
DA:251,0
DA:252,0
DA:253,0
DA:254,0
DA:255,0
DA:256,0
DA:257,0
DA:258,0
DA:259,0
DA:264,0
DA:265,0
DA:266,0
DA:268,0
DA:269,0
DA:273,0
DA:274,0
DA:281,0
DA:282,0
DA:285,0
DA:286,0
DA:287,0
DA:288,0
DA:289,0
DA:290,0
DA:291,0
DA:292,0
DA:294,0
DA:297,0
DA:298,0
DA:299,0
DA:302,0
DA:303,0
DA:304,0
DA:306,0
DA:307,0
DA:308,0
DA:309,0
DA:310,0
DA:311,0
DA:313,0
DA:314,0
DA:317,0
DA:318,0
DA:319,0
DA:322,0
DA:323,0
DA:324,0
DA:325,0
DA:326,0
DA:329,0
DA:330,0
DA:331,0
DA:332,0
DA:333,0
DA:335,0
DA:337,0
DA:338,0
DA:347,1
DA:348,1
DA:349,1
DA:351,1
DA:352,1
DA:354,1
DA:355,1
DA:356,1
DA:359,1
DA:360,1
DA:361,1
DA:363,1
DA:364,1
DA:365,1
DA:368,1
DA:369,1
DA:371,1
DA:372,1
DA:373,1
DA:376,1
DA:377,1
DA:378,1
DA:380,1
DA:381,1
DA:384,1
DA:385,1
DA:386,1
DA:388,1
DA:389,1
DA:390,1
DA:393,1
DA:394,1
DA:396,1
DA:397,1
DA:398,1
DA:399,1
BRF:0
BRH:0
LF:249
LH:109
end_of_record
SF:C:\Users\esteb\RustroverProjects\Durapack\durapack-core\src\encoder.rs
FN:153,_RNvMNtCs27HJmF5ukpX_13durapack_core7encoderNtB2_12FrameBuilder10mark_first
FN:147,_RNvMNtCs27HJmF5ukpX_13durapack_core7encoderNtB2_12FrameBuilder11with_blake3
FN:141,_RNvMNtCs27HJmF5ukpX_13durapack_core7encoderNtB2_12FrameBuilder11with_crc32c
FN:190,_RNvMNtCs27HJmF5ukpX_13durapack_core7encoderNtB2_12FrameBuilder12build_struct
FN:166,_RNvMNtCs27HJmF5ukpX_13durapack_core7encoderNtB2_12FrameBuilder13as_superframe
FN:172,_RNvMNtCs27HJmF5ukpX_13durapack_core7encoderNtB2_12FrameBuilder13with_skiplist
FN:119,_RNvMNtCs27HJmF5ukpX_13durapack_core7encoderNtB2_12FrameBuilder3new
FN:178,_RNvMNtCs27HJmF5ukpX_13durapack_core7encoderNtB2_12FrameBuilder5build
FN:135,_RNvMNtCs27HJmF5ukpX_13durapack_core7encoderNtB2_12FrameBuilder7payload
FN:160,_RNvMNtCs27HJmF5ukpX_13durapack_core7encoderNtB2_12FrameBuilder9mark_last
FN:129,_RNvMNtCs27HJmF5ukpX_13durapack_core7encoderNtB2_12FrameBuilder9prev_hash
FN:21,_RNvNtCs27HJmF5ukpX_13durapack_core7encoder12encode_frame
FN:102,_RNvNtCs27HJmF5ukpX_13durapack_core7encoder14compute_blake3
FN:97,_RNvNtCs27HJmF5ukpX_13durapack_core7encoder14compute_crc32c
FN:92,_RNvNtCs27HJmF5ukpX_13durapack_core7encoder19encode_frame_struct
FN:153,_RNvMNtCsgL3VURY9zOY_13durapack_core7encoderNtB2_12FrameBuilder10mark_first
FN:141,_RNvMNtCsgL3VURY9zOY_13durapack_core7encoderNtB2_12FrameBuilder11with_crc32c
FN:119,_RNvMNtCsgL3VURY9zOY_13durapack_core7encoderNtB2_12FrameBuilder3new
FN:178,_RNvMNtCsgL3VURY9zOY_13durapack_core7encoderNtB2_12FrameBuilder5build
FN:135,_RNvMNtCsgL3VURY9zOY_13durapack_core7encoderNtB2_12FrameBuilder7payload
FN:160,_RNvMNtCsgL3VURY9zOY_13durapack_core7encoderNtB2_12FrameBuilder9mark_last
FN:21,_RNvNtCsgL3VURY9zOY_13durapack_core7encoder12encode_frame
FN:102,_RNvNtCsgL3VURY9zOY_13durapack_core7encoder14compute_blake3
FN:97,_RNvNtCsgL3VURY9zOY_13durapack_core7encoder14compute_crc32c
FN:147,_RNvMNtCsgL3VURY9zOY_13durapack_core7encoderNtB2_12FrameBuilder11with_blake3
FN:190,_RNvMNtCsgL3VURY9zOY_13durapack_core7encoderNtB2_12FrameBuilder12build_struct
FN:166,_RNvMNtCsgL3VURY9zOY_13durapack_core7encoderNtB2_12FrameBuilder13as_superframe
FN:172,_RNvMNtCsgL3VURY9zOY_13durapack_core7encoderNtB2_12FrameBuilder13with_skiplist
FN:129,_RNvMNtCsgL3VURY9zOY_13durapack_core7encoderNtB2_12FrameBuilder9prev_hash
FN:92,_RNvNtCsgL3VURY9zOY_13durapack_core7encoder19encode_frame_struct
FN:226,_RNvNtNtCsgL3VURY9zOY_13durapack_core7encoder5testss_18test_frame_builder
FN:240,_RNvNtNtCsgL3VURY9zOY_13durapack_core7encoder5testss_23test_encode_with_blake3
FN:209,_RNvNtNtCsgL3VURY9zOY_13durapack_core7encoder5testss_24test_encode_simple_frame
FNDA:275,_RNvMNtCs27HJmF5ukpX_13durapack_core7encoderNtB2_12FrameBuilder10mark_first
FNDA:293,_RNvMNtCs27HJmF5ukpX_13durapack_core7encoderNtB2_12FrameBuilder11with_blake3
FNDA:1675,_RNvMNtCs27HJmF5ukpX_13durapack_core7encoderNtB2_12FrameBuilder11with_crc32c
FNDA:39,_RNvMNtCs27HJmF5ukpX_13durapack_core7encoderNtB2_12FrameBuilder12build_struct
FNDA:0,_RNvMNtCs27HJmF5ukpX_13durapack_core7encoderNtB2_12FrameBuilder13as_superframe
FNDA:0,_RNvMNtCs27HJmF5ukpX_13durapack_core7encoderNtB2_12FrameBuilder13with_skiplist
FNDA:1970,_RNvMNtCs27HJmF5ukpX_13durapack_core7encoderNtB2_12FrameBuilder3new
FNDA:1931,_RNvMNtCs27HJmF5ukpX_13durapack_core7encoderNtB2_12FrameBuilder5build
FNDA:1970,_RNvMNtCs27HJmF5ukpX_13durapack_core7encoderNtB2_12FrameBuilder7payload
FNDA:7,_RNvMNtCs27HJmF5ukpX_13durapack_core7encoderNtB2_12FrameBuilder9mark_last
FNDA:34,_RNvMNtCs27HJmF5ukpX_13durapack_core7encoderNtB2_12FrameBuilder9prev_hash
FNDA:1973,_RNvNtCs27HJmF5ukpX_13durapack_core7encoder12encode_frame
FNDA:293,_RNvNtCs27HJmF5ukpX_13durapack_core7encoder14compute_blake3
FNDA:1675,_RNvNtCs27HJmF5ukpX_13durapack_core7encoder14compute_crc32c
FNDA:42,_RNvNtCs27HJmF5ukpX_13durapack_core7encoder19encode_frame_struct
FNDA:2,_RNvMNtCsgL3VURY9zOY_13durapack_core7encoderNtB2_12FrameBuilder10mark_first
FNDA:3,_RNvMNtCsgL3VURY9zOY_13durapack_core7encoderNtB2_12FrameBuilder11with_crc32c
FNDA:9,_RNvMNtCsgL3VURY9zOY_13durapack_core7encoderNtB2_12FrameBuilder3new
FNDA:9,_RNvMNtCsgL3VURY9zOY_13durapack_core7encoderNtB2_12FrameBuilder5build
FNDA:9,_RNvMNtCsgL3VURY9zOY_13durapack_core7encoderNtB2_12FrameBuilder7payload
FNDA:1,_RNvMNtCsgL3VURY9zOY_13durapack_core7encoderNtB2_12FrameBuilder9mark_last
FNDA:14,_RNvNtCsgL3VURY9zOY_13durapack_core7encoder12encode_frame
FNDA:2,_RNvNtCsgL3VURY9zOY_13durapack_core7encoder14compute_blake3
FNDA:4,_RNvNtCsgL3VURY9zOY_13durapack_core7encoder14compute_crc32c
FNDA:0,_RNvMNtCsgL3VURY9zOY_13durapack_core7encoderNtB2_12FrameBuilder11with_blake3
FNDA:0,_RNvMNtCsgL3VURY9zOY_13durapack_core7encoderNtB2_12FrameBuilder12build_struct
FNDA:0,_RNvMNtCsgL3VURY9zOY_13durapack_core7encoderNtB2_12FrameBuilder13as_superframe
FNDA:0,_RNvMNtCsgL3VURY9zOY_13durapack_core7encoderNtB2_12FrameBuilder13with_skiplist
FNDA:0,_RNvMNtCsgL3VURY9zOY_13durapack_core7encoderNtB2_12FrameBuilder9prev_hash
FNDA:0,_RNvNtCsgL3VURY9zOY_13durapack_core7encoder19encode_frame_struct
FNDA:1,_RNvNtNtCsgL3VURY9zOY_13durapack_core7encoder5testss_18test_frame_builder
FNDA:1,_RNvNtNtCsgL3VURY9zOY_13durapack_core7encoder5testss_23test_encode_with_blake3
FNDA:1,_RNvNtNtCsgL3VURY9zOY_13durapack_core7encoder5testss_24test_encode_simple_frame
FNF:18
FNH:16
DA:21,1987
DA:22,1987
DA:24,1987
DA:25,0
DA:26,0
DA:27,0
DA:28,0
DA:29,0
DA:30,1987
DA:32,1987
DA:33,1987
DA:36,1987
DA:37,1987
DA:38,0
DA:39,1987
DA:40,1987
DA:41,0
DA:42,0
DA:43,1987
DA:45,1987
DA:47,1987
DA:50,1987
DA:51,0
DA:52,0
DA:53,0
DA:54,0
DA:55,1987
DA:58,1987
DA:59,0
DA:60,1987
DA:63,1987
DA:66,1987
DA:67,1987
DA:68,1987
DA:69,1987
DA:70,1987
DA:73,1987
DA:76,1987
DA:77,13
DA:78,1679
DA:79,1679
DA:80,1679
DA:81,1679
DA:82,295
DA:83,295
DA:84,295
DA:85,295
DA:88,1987
DA:89,1987
DA:92,42
DA:93,42
DA:94,42
DA:97,1679
DA:98,1679
DA:99,1679
DA:102,295
DA:103,295
DA:104,295
DA:105,295
DA:106,295
DA:107,295
DA:119,1979
DA:120,1979
DA:121,1979
DA:122,1979
DA:123,1979
DA:124,1979
DA:125,1979
DA:126,1979
DA:129,34
DA:130,34
DA:131,34
DA:132,34
DA:135,1979
DA:136,1979
DA:137,1979
DA:138,1979
DA:141,1678
DA:142,1678
DA:143,1678
DA:144,1678
DA:147,293
DA:148,293
DA:149,293
DA:150,293
DA:153,277
DA:154,277
DA:155,277
DA:156,277
DA:157,277
DA:160,8
DA:161,8
DA:162,8
DA:163,8
DA:166,0
DA:167,0
DA:168,0
DA:169,0
DA:172,0
DA:173,0
DA:174,0
DA:175,0
DA:178,1940
DA:179,1940
DA:180,1940
DA:181,1940
DA:182,1940
DA:183,1940
DA:186,1940
DA:187,1940
DA:190,39
DA:191,39
DA:192,39
DA:193,39
DA:194,39
DA:195,39
DA:198,39
DA:200,39
DA:201,39
DA:209,1
DA:210,1
DA:211,1
DA:213,1
DA:216,1
DA:219,1
DA:222,1
DA:223,1
DA:226,1
DA:227,1
DA:228,1
DA:229,1
DA:230,1
DA:231,1
DA:232,1
DA:233,1
DA:235,1
DA:236,1
DA:237,1
DA:240,1
DA:241,1
DA:242,1
DA:244,1
DA:245,1
DA:246,1
DA:249,1
DA:252,1
DA:253,1
BRF:0
BRH:0
LF:147
LH:126
end_of_record
SF:C:\Users\esteb\RustroverProjects\Durapack\durapack-core\src\error.rs
FN:86,_RNvXNtCs27HJmF5ukpX_13durapack_core5errorNtB2_10FrameErrorINtNtCsepugsivA0dq_4core7convert4FromNtNtNtCs6wH60Dmcu4w_3std2io5error5ErrorE4from
FN:86,_RNvXNtCsgL3VURY9zOY_13durapack_core5errorNtB2_10FrameErrorINtNtCsepugsivA0dq_4core7convert4FromNtNtNtCs6wH60Dmcu4w_3std2io5error5ErrorE4from
FNDA:2,_RNvXNtCs27HJmF5ukpX_13durapack_core5errorNtB2_10FrameErrorINtNtCsepugsivA0dq_4core7convert4FromNtNtNtCs6wH60Dmcu4w_3std2io5error5ErrorE4from
FNDA:0,_RNvXNtCsgL3VURY9zOY_13durapack_core5errorNtB2_10FrameErrorINtNtCsepugsivA0dq_4core7convert4FromNtNtNtCs6wH60Dmcu4w_3std2io5error5ErrorE4from
FNF:1
FNH:1
DA:86,2
DA:87,2
DA:88,2
BRF:0
BRH:0
LF:3
LH:3
end_of_record
SF:C:\Users\esteb\RustroverProjects\Durapack\durapack-core\src\fec.rs
FN:117,_RNvMs0_NtCs27HJmF5ukpX_13durapack_core3fecNtB5_9RsEncoder3new
FN:256,_RNvNtCs27HJmF5ukpX_13durapack_core3fec21rs_interleaved_encode
FN:70,_RNvXNtCs27HJmF5ukpX_13durapack_core3fecNtB2_11NoopEncoderNtB2_17RedundancyEncoder12encode_batch
FN:127,_RNvXs1_NtCs27HJmF5ukpX_13durapack_core3fecNtB5_9RsEncoderNtB5_17RedundancyEncoder12encode_batch
FN:198,_RNvXs2_NtCs27HJmF5ukpX_13durapack_core3fecNtB5_9RsDecoderNtB5_17RedundancyDecoder12decode_batch
FN:249,_RNvXs2_NtCs27HJmF5ukpX_13durapack_core3fecNtB5_9RsDecoderNtB5_17RedundancyDecoder15can_reconstruct
FN:86,_RNvXs_NtCs27HJmF5ukpX_13durapack_core3fecNtB4_11NoopDecoderNtB4_17RedundancyDecoder12decode_batch
FN:96,_RNvXs_NtCs27HJmF5ukpX_13durapack_core3fecNtB4_11NoopDecoderNtB4_17RedundancyDecoder15can_reconstruct
FN:261,_RNCNvNtCs27HJmF5ukpX_13durapack_core3fec21rs_interleaved_encode0B5_
FN:272,_RNCNvNtCs27HJmF5ukpX_13durapack_core3fec21rs_interleaved_encodes0_0B5_
FN:273,_RNCNvNtCs27HJmF5ukpX_13durapack_core3fec21rs_interleaved_encodes1_0B5_
FN:275,_RNCNvNtCs27HJmF5ukpX_13durapack_core3fec21rs_interleaved_encodes2_0B5_
FN:281,_RNCNvNtCs27HJmF5ukpX_13durapack_core3fec21rs_interleaved_encodes3_0B5_
FN:262,_RNCNvNtCs27HJmF5ukpX_13durapack_core3fec21rs_interleaved_encodes_0B5_
FN:147,_RNCNvXs1_NtCs27HJmF5ukpX_13durapack_core3fecNtB7_9RsEncoderNtB7_17RedundancyEncoder12encode_batch0B9_
FN:172,_RNCNvXs1_NtCs27HJmF5ukpX_13durapack_core3fecNtB7_9RsEncoderNtB7_17RedundancyEncoder12encode_batchs0_0B9_
FN:174,_RNCNvXs1_NtCs27HJmF5ukpX_13durapack_core3fecNtB7_9RsEncoderNtB7_17RedundancyEncoder12encode_batchs1_0B9_
FN:171,_RNCNvXs1_NtCs27HJmF5ukpX_13durapack_core3fecNtB7_9RsEncoderNtB7_17RedundancyEncoder12encode_batchs_0B9_
FN:213,_RNCNvXs2_NtCs27HJmF5ukpX_13durapack_core3fecNtB7_9RsDecoderNtB7_17RedundancyDecoder12decode_batch0B9_
FN:224,_RNCNvXs2_NtCs27HJmF5ukpX_13durapack_core3fecNtB7_9RsDecoderNtB7_17RedundancyDecoder12decode_batchs_0B9_
FN:117,_RNvMs0_NtCsgL3VURY9zOY_13durapack_core3fecNtB5_9RsEncoder3new
FN:70,_RNvXNtCsgL3VURY9zOY_13durapack_core3fecNtB2_11NoopEncoderNtB2_17RedundancyEncoder12encode_batch
FN:127,_RNvXs1_NtCsgL3VURY9zOY_13durapack_core3fecNtB5_9RsEncoderNtB5_17RedundancyEncoder12encode_batch
FN:198,_RNvXs2_NtCsgL3VURY9zOY_13durapack_core3fecNtB5_9RsDecoderNtB5_17RedundancyDecoder12decode_batch
FN:86,_RNvXs_NtCsgL3VURY9zOY_13durapack_core3fecNtB4_11NoopDecoderNtB4_17RedundancyDecoder12decode_batch
FN:96,_RNvXs_NtCsgL3VURY9zOY_13durapack_core3fecNtB4_11NoopDecoderNtB4_17RedundancyDecoder15can_reconstruct
FN:261,_RNCNvNtCsgL3VURY9zOY_13durapack_core3fec21rs_interleaved_encode0B5_
FN:272,_RNCNvNtCsgL3VURY9zOY_13durapack_core3fec21rs_interleaved_encodes0_0B5_
FN:273,_RNCNvNtCsgL3VURY9zOY_13durapack_core3fec21rs_interleaved_encodes1_0B5_
FN:275,_RNCNvNtCsgL3VURY9zOY_13durapack_core3fec21rs_interleaved_encodes2_0B5_
FN:281,_RNCNvNtCsgL3VURY9zOY_13durapack_core3fec21rs_interleaved_encodes3_0B5_
FN:262,_RNCNvNtCsgL3VURY9zOY_13durapack_core3fec21rs_interleaved_encodes_0B5_
FN:256,_RNvNtCsgL3VURY9zOY_13durapack_core3fec21rs_interleaved_encode
FN:249,_RNvXs2_NtCsgL3VURY9zOY_13durapack_core3fecNtB5_9RsDecoderNtB5_17RedundancyDecoder15can_reconstruct
FN:397,_RNCNvNtNtCsgL3VURY9zOY_13durapack_core3fec5testss_20rs_round_trip_simple0B7_
FN:408,_RNCNvNtNtCsgL3VURY9zOY_13durapack_core3fec5testss_20rs_round_trip_simples_0B7_
FN:381,_RNvNtNtCsgL3VURY9zOY_13durapack_core3fec5testss_17test_noop_decoder
FN:374,_RNvNtNtCsgL3VURY9zOY_13durapack_core3fec5testss_17test_noop_encoder
FN:390,_RNvNtNtCsgL3VURY9zOY_13durapack_core3fec5testss_20rs_round_trip_simple
FN:147,_RNCNvXs1_NtCsgL3VURY9zOY_13durapack_core3fecNtB7_9RsEncoderNtB7_17RedundancyEncoder12encode_batch0B9_
FN:172,_RNCNvXs1_NtCsgL3VURY9zOY_13durapack_core3fecNtB7_9RsEncoderNtB7_17RedundancyEncoder12encode_batchs0_0B9_
FN:174,_RNCNvXs1_NtCsgL3VURY9zOY_13durapack_core3fecNtB7_9RsEncoderNtB7_17RedundancyEncoder12encode_batchs1_0B9_
FN:171,_RNCNvXs1_NtCsgL3VURY9zOY_13durapack_core3fecNtB7_9RsEncoderNtB7_17RedundancyEncoder12encode_batchs_0B9_
FN:213,_RNCNvXs2_NtCsgL3VURY9zOY_13durapack_core3fecNtB7_9RsDecoderNtB7_17RedundancyDecoder12decode_batch0B9_
FN:224,_RNCNvXs2_NtCsgL3VURY9zOY_13durapack_core3fecNtB7_9RsDecoderNtB7_17RedundancyDecoder12decode_batchs_0B9_
FNDA:4,_RNvMs0_NtCs27HJmF5ukpX_13durapack_core3fecNtB5_9RsEncoder3new
FNDA:0,_RNvNtCs27HJmF5ukpX_13durapack_core3fec21rs_interleaved_encode
FNDA:0,_RNvXNtCs27HJmF5ukpX_13durapack_core3fecNtB2_11NoopEncoderNtB2_17RedundancyEncoder12encode_batch
FNDA:7,_RNvXs1_NtCs27HJmF5ukpX_13durapack_core3fecNtB5_9RsEncoderNtB5_17RedundancyEncoder12encode_batch
FNDA:0,_RNvXs2_NtCs27HJmF5ukpX_13durapack_core3fecNtB5_9RsDecoderNtB5_17RedundancyDecoder12decode_batch
FNDA:0,_RNvXs2_NtCs27HJmF5ukpX_13durapack_core3fecNtB5_9RsDecoderNtB5_17RedundancyDecoder15can_reconstruct
FNDA:0,_RNvXs_NtCs27HJmF5ukpX_13durapack_core3fecNtB4_11NoopDecoderNtB4_17RedundancyDecoder12decode_batch
FNDA:0,_RNvXs_NtCs27HJmF5ukpX_13durapack_core3fecNtB4_11NoopDecoderNtB4_17RedundancyDecoder15can_reconstruct
FNDA:0,_RNCNvNtCs27HJmF5ukpX_13durapack_core3fec21rs_interleaved_encode0B5_
FNDA:0,_RNCNvNtCs27HJmF5ukpX_13durapack_core3fec21rs_interleaved_encodes0_0B5_
FNDA:0,_RNCNvNtCs27HJmF5ukpX_13durapack_core3fec21rs_interleaved_encodes1_0B5_
FNDA:0,_RNCNvNtCs27HJmF5ukpX_13durapack_core3fec21rs_interleaved_encodes2_0B5_
FNDA:0,_RNCNvNtCs27HJmF5ukpX_13durapack_core3fec21rs_interleaved_encodes3_0B5_
FNDA:0,_RNCNvNtCs27HJmF5ukpX_13durapack_core3fec21rs_interleaved_encodes_0B5_
FNDA:14,_RNCNvXs1_NtCs27HJmF5ukpX_13durapack_core3fecNtB7_9RsEncoderNtB7_17RedundancyEncoder12encode_batch0B9_
FNDA:21,_RNCNvXs1_NtCs27HJmF5ukpX_13durapack_core3fecNtB7_9RsEncoderNtB7_17RedundancyEncoder12encode_batchs0_0B9_
FNDA:0,_RNCNvXs1_NtCs27HJmF5ukpX_13durapack_core3fecNtB7_9RsEncoderNtB7_17RedundancyEncoder12encode_batchs1_0B9_
FNDA:0,_RNCNvXs1_NtCs27HJmF5ukpX_13durapack_core3fecNtB7_9RsEncoderNtB7_17RedundancyEncoder12encode_batchs_0B9_
FNDA:0,_RNCNvXs2_NtCs27HJmF5ukpX_13durapack_core3fecNtB7_9RsDecoderNtB7_17RedundancyDecoder12decode_batch0B9_
FNDA:0,_RNCNvXs2_NtCs27HJmF5ukpX_13durapack_core3fecNtB7_9RsDecoderNtB7_17RedundancyDecoder12decode_batchs_0B9_
FNDA:1,_RNvMs0_NtCsgL3VURY9zOY_13durapack_core3fecNtB5_9RsEncoder3new
FNDA:1,_RNvXNtCsgL3VURY9zOY_13durapack_core3fecNtB2_11NoopEncoderNtB2_17RedundancyEncoder12encode_batch
FNDA:1,_RNvXs1_NtCsgL3VURY9zOY_13durapack_core3fecNtB5_9RsEncoderNtB5_17RedundancyEncoder12encode_batch
FNDA:1,_RNvXs2_NtCsgL3VURY9zOY_13durapack_core3fecNtB5_9RsDecoderNtB5_17RedundancyDecoder12decode_batch
FNDA:1,_RNvXs_NtCsgL3VURY9zOY_13durapack_core3fecNtB4_11NoopDecoderNtB4_17RedundancyDecoder12decode_batch
FNDA:1,_RNvXs_NtCsgL3VURY9zOY_13durapack_core3fecNtB4_11NoopDecoderNtB4_17RedundancyDecoder15can_reconstruct
FNDA:0,_RNCNvNtCsgL3VURY9zOY_13durapack_core3fec21rs_interleaved_encode0B5_
FNDA:0,_RNCNvNtCsgL3VURY9zOY_13durapack_core3fec21rs_interleaved_encodes0_0B5_
FNDA:0,_RNCNvNtCsgL3VURY9zOY_13durapack_core3fec21rs_interleaved_encodes1_0B5_
FNDA:0,_RNCNvNtCsgL3VURY9zOY_13durapack_core3fec21rs_interleaved_encodes2_0B5_
FNDA:0,_RNCNvNtCsgL3VURY9zOY_13durapack_core3fec21rs_interleaved_encodes3_0B5_
FNDA:0,_RNCNvNtCsgL3VURY9zOY_13durapack_core3fec21rs_interleaved_encodes_0B5_
FNDA:0,_RNvNtCsgL3VURY9zOY_13durapack_core3fec21rs_interleaved_encode
FNDA:0,_RNvXs2_NtCsgL3VURY9zOY_13durapack_core3fecNtB5_9RsDecoderNtB5_17RedundancyDecoder15can_reconstruct
FNDA:2,_RNCNvNtNtCsgL3VURY9zOY_13durapack_core3fec5testss_20rs_round_trip_simple0B7_
FNDA:3,_RNCNvNtNtCsgL3VURY9zOY_13durapack_core3fec5testss_20rs_round_trip_simples_0B7_
FNDA:1,_RNvNtNtCsgL3VURY9zOY_13durapack_core3fec5testss_17test_noop_decoder
FNDA:1,_RNvNtNtCsgL3VURY9zOY_13durapack_core3fec5testss_17test_noop_encoder
FNDA:1,_RNvNtNtCsgL3VURY9zOY_13durapack_core3fec5testss_20rs_round_trip_simple
FNDA:2,_RNCNvXs1_NtCsgL3VURY9zOY_13durapack_core3fecNtB7_9RsEncoderNtB7_17RedundancyEncoder12encode_batch0B9_
FNDA:3,_RNCNvXs1_NtCsgL3VURY9zOY_13durapack_core3fecNtB7_9RsEncoderNtB7_17RedundancyEncoder12encode_batchs0_0B9_
FNDA:0,_RNCNvXs1_NtCsgL3VURY9zOY_13durapack_core3fecNtB7_9RsEncoderNtB7_17RedundancyEncoder12encode_batchs1_0B9_
FNDA:0,_RNCNvXs1_NtCsgL3VURY9zOY_13durapack_core3fecNtB7_9RsEncoderNtB7_17RedundancyEncoder12encode_batchs_0B9_
FNDA:0,_RNCNvXs2_NtCsgL3VURY9zOY_13durapack_core3fecNtB7_9RsDecoderNtB7_17RedundancyDecoder12decode_batch0B9_
FNDA:0,_RNCNvXs2_NtCsgL3VURY9zOY_13durapack_core3fecNtB7_9RsDecoderNtB7_17RedundancyDecoder12decode_batchs_0B9_
FNF:25
FNH:13
DA:70,1
DA:71,1
DA:72,1
DA:73,1
DA:74,1
DA:75,1
DA:76,1
DA:77,1
DA:78,1
DA:86,1
DA:87,1
DA:88,1
DA:89,1
DA:90,1
DA:91,1
DA:92,1
DA:93,1
DA:94,1
DA:96,1
DA:97,1
DA:98,1
DA:117,5
DA:118,5
DA:119,5
DA:120,5
DA:121,5
DA:122,5
DA:127,8
DA:128,8
DA:129,8
DA:130,8
DA:131,8
DA:133,8
DA:134,0
DA:136,8
DA:138,8
DA:139,8
DA:140,0
DA:141,8
DA:143,8
DA:147,16
DA:148,8
DA:150,8
DA:152,16
DA:153,16
DA:154,16
DA:155,16
DA:156,16
DA:157,16
DA:159,8
DA:160,0
DA:161,0
DA:162,0
DA:163,8
DA:165,8
DA:166,8
DA:167,8
DA:170,8
DA:171,8
DA:172,24
DA:173,8
DA:174,8
DA:177,8
DA:178,8
DA:179,24
DA:180,24
DA:181,24
DA:182,24
DA:183,24
DA:184,24
DA:185,24
DA:186,24
DA:187,8
DA:188,8
DA:198,1
DA:199,1
DA:200,1
DA:201,1
DA:202,1
DA:203,1
DA:204,0
DA:205,1
DA:207,1
DA:208,1
DA:209,1
DA:210,1
DA:212,1
DA:213,1
DA:216,1
DA:217,3
DA:218,2
DA:219,2
DA:220,2
DA:223,1
DA:224,1
DA:227,1
DA:228,2
DA:229,2
DA:231,2
DA:232,3
DA:233,1
DA:234,1
DA:235,2
DA:238,2
DA:239,2
DA:241,0
DA:242,0
DA:243,0
DA:246,1
DA:247,1
DA:249,0
DA:250,0
DA:251,0
DA:256,0
DA:257,0
DA:258,0
DA:259,0
DA:260,0
DA:261,0
DA:262,0
DA:263,0
DA:264,0
DA:265,0
DA:266,0
DA:268,0
DA:269,0
DA:270,0
DA:271,0
DA:272,0
DA:273,0
DA:274,0
DA:275,0
DA:276,0
DA:277,0
DA:278,0
DA:279,0
DA:280,0
DA:281,0
DA:282,0
DA:283,0
DA:284,0
DA:285,0
DA:286,0
DA:287,0
DA:374,1
DA:375,1
DA:376,1
DA:377,1
DA:378,1
DA:381,1
DA:382,1
DA:383,1
DA:384,1
DA:385,1
DA:386,1
DA:390,1
DA:393,1
DA:394,1
DA:395,1
DA:396,1
DA:397,2
DA:398,2
DA:399,2
DA:400,2
DA:401,1
DA:402,1
DA:403,1
DA:405,1
DA:406,1
DA:407,1
DA:408,3
DA:409,1
DA:410,1
DA:411,1
DA:412,1
DA:413,1
DA:414,1
DA:415,1
BRF:0
BRH:0
LF:191
LH:139
end_of_record
SF:C:\Users\esteb\RustroverProjects\Durapack\durapack-core\src\interleave.rs
FN:45,_RNCNvNtCs27HJmF5ukpX_13durapack_core10interleave16interleave_bytes0B5_
FN:57,_RNCNvNtCs27HJmF5ukpX_13durapack_core10interleave16interleave_bytess_0B5_
FN:77,_RNCNvNtCs27HJmF5ukpX_13durapack_core10interleave18deinterleave_bytes0B5_
FN:28,_RNvMNtCsgL3VURY9zOY_13durapack_core10interleaveNtB2_16InterleaveParams3new
FN:39,_RNvNtCsgL3VURY9zOY_13durapack_core10interleave16interleave_bytes
FN:65,_RNvNtCsgL3VURY9zOY_13durapack_core10interleave18deinterleave_bytes
FN:108,_RNvNtNtCsgL3VURY9zOY_13durapack_core10interleave5testss_34round_trip_interleave_deinterleave
FN:45,_RNCNvNtCsgL3VURY9zOY_13durapack_core10interleave16interleave_bytes0B5_
FN:57,_RNCNvNtCsgL3VURY9zOY_13durapack_core10interleave16interleave_bytess_0B5_
FN:77,_RNCNvNtCsgL3VURY9zOY_13durapack_core10interleave18deinterleave_bytes0B5_
FNDA:0,_RNCNvNtCs27HJmF5ukpX_13durapack_core10interleave16interleave_bytes0B5_
FNDA:0,_RNCNvNtCs27HJmF5ukpX_13durapack_core10interleave16interleave_bytess_0B5_
FNDA:0,_RNCNvNtCs27HJmF5ukpX_13durapack_core10interleave18deinterleave_bytes0B5_
FNDA:1,_RNvMNtCsgL3VURY9zOY_13durapack_core10interleaveNtB2_16InterleaveParams3new
FNDA:1,_RNvNtCsgL3VURY9zOY_13durapack_core10interleave16interleave_bytes
FNDA:1,_RNvNtCsgL3VURY9zOY_13durapack_core10interleave18deinterleave_bytes
FNDA:1,_RNvNtNtCsgL3VURY9zOY_13durapack_core10interleave5testss_34round_trip_interleave_deinterleave
FNDA:5,_RNCNvNtCsgL3VURY9zOY_13durapack_core10interleave16interleave_bytes0B5_
FNDA:5,_RNCNvNtCsgL3VURY9zOY_13durapack_core10interleave16interleave_bytess_0B5_
FNDA:5,_RNCNvNtCsgL3VURY9zOY_13durapack_core10interleave18deinterleave_bytes0B5_
FNF:7
FNH:7
DA:28,1
DA:29,1
DA:30,1
DA:39,1
DA:40,1
DA:41,1
DA:42,0
DA:45,5
DA:46,1
DA:47,9
DA:48,40
DA:49,40
DA:50,1
DA:51,39
DA:52,39
DA:53,39
DA:54,39
DA:57,5
DA:58,1
DA:65,1
DA:66,1
DA:67,1
DA:68,0
DA:70,1
DA:71,1
DA:73,0
DA:77,5
DA:78,1
DA:79,1
DA:83,9
DA:84,45
DA:85,45
DA:86,45
DA:87,6
DA:88,39
DA:89,39
DA:90,39
DA:91,39
DA:92,39
DA:94,9
DA:95,1
DA:96,8
DA:99,1
DA:100,1
DA:108,1
DA:109,1
DA:110,1
DA:111,1
DA:113,1
DA:114,1
DA:115,1
DA:116,1
DA:117,1
DA:118,1
DA:119,1
BRF:0
BRH:0
LF:58
LH:55
end_of_record
SF:C:\Users\esteb\RustroverProjects\Durapack\durapack-core\src\linker.rs
FN:493,_RNvMNtCs27HJmF5ukpX_13durapack_core6linkerNtB2_8Timeline18seek_with_skiplist
FN:476,_RNvMNtCs27HJmF5ukpX_13durapack_core6linkerNtB2_8Timeline5stats
FN:116,_RNvNtCs27HJmF5ukpX_13durapack_core6linker11link_frames
FN:539,_RNvNtCs27HJmF5ukpX_13durapack_core6linker13report_to_dot
FN:277,_RNvNtCs27HJmF5ukpX_13durapack_core6linker16analyze_timeline
FN:441,_RNvNtCs27HJmF5ukpX_13durapack_core6linker16verify_backlinks
FN:271,_RNvNtCs27HJmF5ukpX_13durapack_core6linker19link_located_frames
FN:283,_RNvNtCs27HJmF5ukpX_13durapack_core6linker22analyze_located_frames
FN:241,_RNvNtCs27HJmF5ukpX_13durapack_core6linker25reconstruct_without_first
FN:289,_RNvNtCs27HJmF5ukpX_13durapack_core6linker26build_report_from_timeline
FN:515,_RNCNvMNtCs27HJmF5ukpX_13durapack_core6linkerNtB4_8Timeline18seek_with_skiplists0_0B6_
FN:514,_RNCNvMNtCs27HJmF5ukpX_13durapack_core6linkerNtB4_8Timeline18seek_with_skiplists_0B6_
FN:135,_RNCNvNtCs27HJmF5ukpX_13durapack_core6linker11link_frames0B5_
FN:186,_RNCNvNtCs27HJmF5ukpX_13durapack_core6linker11link_framess0_0B5_
FN:221,_RNCNvNtCs27HJmF5ukpX_13durapack_core6linker11link_framess2_0B5_
FN:168,_RNCNvNtCs27HJmF5ukpX_13durapack_core6linker11link_framess_0B5_
FN:284,_RNCNvNtCs27HJmF5ukpX_13durapack_core6linker22analyze_located_frames0B5_
FN:650,_RNvNtNtCsgL3VURY9zOY_13durapack_core6linker5testss_18test_link_with_gap
FN:695,_RNvNtNtCsgL3VURY9zOY_13durapack_core6linker5testss_21test_verify_backlinks
FN:672,_RNvNtNtCsgL3VURY9zOY_13durapack_core6linker5testss_26test_link_unordered_frames
FN:630,_RNvNtNtCsgL3VURY9zOY_13durapack_core6linker5testss_27test_link_continuous_frames
FN:515,_RNCNvMNtCsgL3VURY9zOY_13durapack_core6linkerNtB4_8Timeline18seek_with_skiplists0_0B6_
FN:514,_RNCNvMNtCsgL3VURY9zOY_13durapack_core6linkerNtB4_8Timeline18seek_with_skiplists_0B6_
FN:284,_RNCNvNtCsgL3VURY9zOY_13durapack_core6linker22analyze_located_frames0B5_
FN:493,_RNvMNtCsgL3VURY9zOY_13durapack_core6linkerNtB2_8Timeline18seek_with_skiplist
FN:476,_RNvMNtCsgL3VURY9zOY_13durapack_core6linkerNtB2_8Timeline5stats
FN:539,_RNvNtCsgL3VURY9zOY_13durapack_core6linker13report_to_dot
FN:277,_RNvNtCsgL3VURY9zOY_13durapack_core6linker16analyze_timeline
FN:271,_RNvNtCsgL3VURY9zOY_13durapack_core6linker19link_located_frames
FN:283,_RNvNtCsgL3VURY9zOY_13durapack_core6linker22analyze_located_frames
FN:289,_RNvNtCsgL3VURY9zOY_13durapack_core6linker26build_report_from_timeline
FN:116,_RNvNtCsgL3VURY9zOY_13durapack_core6linker11link_frames
FN:441,_RNvNtCsgL3VURY9zOY_13durapack_core6linker16verify_backlinks
FN:241,_RNvNtCsgL3VURY9zOY_13durapack_core6linker25reconstruct_without_first
FN:135,_RNCNvNtCsgL3VURY9zOY_13durapack_core6linker11link_frames0B5_
FN:186,_RNCNvNtCsgL3VURY9zOY_13durapack_core6linker11link_framess0_0B5_
FN:221,_RNCNvNtCsgL3VURY9zOY_13durapack_core6linker11link_framess2_0B5_
FN:168,_RNCNvNtCsgL3VURY9zOY_13durapack_core6linker11link_framess_0B5_
FNDA:0,_RNvMNtCs27HJmF5ukpX_13durapack_core6linkerNtB2_8Timeline18seek_with_skiplist
FNDA:0,_RNvMNtCs27HJmF5ukpX_13durapack_core6linkerNtB2_8Timeline5stats
FNDA:9,_RNvNtCs27HJmF5ukpX_13durapack_core6linker11link_frames
FNDA:0,_RNvNtCs27HJmF5ukpX_13durapack_core6linker13report_to_dot
FNDA:0,_RNvNtCs27HJmF5ukpX_13durapack_core6linker16analyze_timeline
FNDA:0,_RNvNtCs27HJmF5ukpX_13durapack_core6linker16verify_backlinks
FNDA:0,_RNvNtCs27HJmF5ukpX_13durapack_core6linker19link_located_frames
FNDA:0,_RNvNtCs27HJmF5ukpX_13durapack_core6linker22analyze_located_frames
FNDA:0,_RNvNtCs27HJmF5ukpX_13durapack_core6linker25reconstruct_without_first
FNDA:0,_RNvNtCs27HJmF5ukpX_13durapack_core6linker26build_report_from_timeline
FNDA:0,_RNCNvMNtCs27HJmF5ukpX_13durapack_core6linkerNtB4_8Timeline18seek_with_skiplists0_0B6_
FNDA:0,_RNCNvMNtCs27HJmF5ukpX_13durapack_core6linkerNtB4_8Timeline18seek_with_skiplists_0B6_
FNDA:30,_RNCNvNtCs27HJmF5ukpX_13durapack_core6linker11link_frames0B5_
FNDA:32,_RNCNvNtCs27HJmF5ukpX_13durapack_core6linker11link_framess0_0B5_
FNDA:30,_RNCNvNtCs27HJmF5ukpX_13durapack_core6linker11link_framess2_0B5_
FNDA:92,_RNCNvNtCs27HJmF5ukpX_13durapack_core6linker11link_framess_0B5_
FNDA:0,_RNCNvNtCs27HJmF5ukpX_13durapack_core6linker22analyze_located_frames0B5_
FNDA:1,_RNvNtNtCsgL3VURY9zOY_13durapack_core6linker5testss_18test_link_with_gap
FNDA:1,_RNvNtNtCsgL3VURY9zOY_13durapack_core6linker5testss_21test_verify_backlinks
FNDA:1,_RNvNtNtCsgL3VURY9zOY_13durapack_core6linker5testss_26test_link_unordered_frames
FNDA:1,_RNvNtNtCsgL3VURY9zOY_13durapack_core6linker5testss_27test_link_continuous_frames
FNDA:0,_RNCNvMNtCsgL3VURY9zOY_13durapack_core6linkerNtB4_8Timeline18seek_with_skiplists0_0B6_
FNDA:0,_RNCNvMNtCsgL3VURY9zOY_13durapack_core6linkerNtB4_8Timeline18seek_with_skiplists_0B6_
FNDA:0,_RNCNvNtCsgL3VURY9zOY_13durapack_core6linker22analyze_located_frames0B5_
FNDA:0,_RNvMNtCsgL3VURY9zOY_13durapack_core6linkerNtB2_8Timeline18seek_with_skiplist
FNDA:0,_RNvMNtCsgL3VURY9zOY_13durapack_core6linkerNtB2_8Timeline5stats
FNDA:0,_RNvNtCsgL3VURY9zOY_13durapack_core6linker13report_to_dot
FNDA:0,_RNvNtCsgL3VURY9zOY_13durapack_core6linker16analyze_timeline
FNDA:0,_RNvNtCsgL3VURY9zOY_13durapack_core6linker19link_located_frames
FNDA:0,_RNvNtCsgL3VURY9zOY_13durapack_core6linker22analyze_located_frames
FNDA:0,_RNvNtCsgL3VURY9zOY_13durapack_core6linker26build_report_from_timeline
FNDA:3,_RNvNtCsgL3VURY9zOY_13durapack_core6linker11link_frames
FNDA:1,_RNvNtCsgL3VURY9zOY_13durapack_core6linker16verify_backlinks
FNDA:0,_RNvNtCsgL3VURY9zOY_13durapack_core6linker25reconstruct_without_first
FNDA:8,_RNCNvNtCsgL3VURY9zOY_13durapack_core6linker11link_frames0B5_
FNDA:10,_RNCNvNtCsgL3VURY9zOY_13durapack_core6linker11link_framess0_0B5_
FNDA:8,_RNCNvNtCsgL3VURY9zOY_13durapack_core6linker11link_framess2_0B5_
FNDA:20,_RNCNvNtCsgL3VURY9zOY_13durapack_core6linker11link_framess_0B5_
FNF:21
FNH:10
DA:116,12
DA:118,12
DA:120,12
DA:121,0
DA:122,0
DA:123,0
DA:124,0
DA:125,0
DA:126,12
DA:129,12
DA:130,50
DA:131,38
DA:132,38
DA:135,38
DA:137,12
DA:139,0
DA:141,0
DA:142,12
DA:144,12
DA:146,1
DA:147,11
DA:150,12
DA:151,12
DA:152,1
DA:153,0
DA:154,1
DA:157,12
DA:158,12
DA:159,12
DA:160,12
DA:162,12
DA:163,12
DA:168,112
DA:169,112
DA:170,112
DA:172,38
DA:173,24
DA:175,24
DA:177,24
DA:178,24
DA:179,24
DA:180,24
DA:184,14
DA:185,14
DA:186,42
DA:187,14
DA:189,14
DA:191,2
DA:192,0
DA:194,0
DA:198,2
DA:199,2
DA:200,2
DA:201,2
DA:202,2
DA:203,2
DA:205,2
DA:206,2
DA:207,2
DA:208,2
DA:209,2
DA:210,0
DA:211,12
DA:213,12
DA:219,12
DA:220,12
DA:221,38
DA:222,12
DA:223,12
DA:226,12
DA:227,0
DA:228,0
DA:229,0
DA:230,0
DA:233,12
DA:234,12
DA:235,12
DA:236,12
DA:237,12
DA:238,12
DA:241,0
DA:242,0
DA:243,0
DA:246,0
DA:247,0
DA:248,0
DA:249,0
DA:252,0
DA:253,0
DA:254,0
DA:255,0
DA:256,0
DA:257,0
DA:258,0
DA:259,0
DA:260,0
DA:263,0
DA:264,0
DA:265,0
DA:266,0
DA:267,0
DA:268,0
DA:271,0
DA:272,0
DA:273,0
DA:274,0
DA:277,0
DA:278,0
DA:279,0
DA:280,0
DA:283,0
DA:284,0
DA:285,0
DA:286,0
DA:287,0
DA:289,0
DA:290,0
DA:291,0
DA:292,0
DA:294,0
DA:295,0
DA:297,0
DA:298,0
DA:299,0
DA:300,0
DA:303,0
DA:304,0
DA:305,0
DA:306,0
DA:309,0
DA:310,0
DA:311,0
DA:312,0
DA:315,0
DA:317,0
DA:320,0
DA:323,0
DA:324,0
DA:325,0
DA:326,0
DA:330,0
DA:331,0
DA:332,0
DA:333,0
DA:334,0
DA:335,0
DA:336,0
DA:337,0
DA:339,0
DA:340,0
DA:341,0
DA:342,0
DA:343,0
DA:344,0
DA:345,0
DA:346,0
DA:347,0
DA:348,0
DA:352,0
DA:353,0
DA:354,0
DA:355,0
DA:357,0
DA:358,0
DA:359,0
DA:360,0
DA:361,0
DA:362,0
DA:364,0
DA:365,0
DA:366,0
DA:367,0
DA:371,0
DA:372,0
DA:373,0
DA:374,0
DA:375,0
DA:376,0
DA:377,0
DA:378,0
DA:379,0
DA:380,0
DA:381,0
DA:382,0
DA:383,0
DA:384,0
DA:385,0
DA:386,0
DA:388,0
DA:390,0
DA:391,0
DA:395,0
DA:397,0
DA:398,0
DA:399,0
DA:400,0
DA:401,0
DA:402,0
DA:403,0
DA:405,0
DA:407,0
DA:408,0
DA:409,0
DA:410,0
DA:411,0
DA:412,0
DA:413,0
DA:414,0
DA:415,0
DA:416,0
DA:417,0
DA:418,0
DA:419,0
DA:420,0
DA:421,0
DA:422,0
DA:423,0
DA:424,0
DA:426,0
DA:428,0
DA:429,0
DA:430,0
DA:431,0
DA:432,0
DA:433,0
DA:434,0
DA:435,0
DA:441,1
DA:442,1
DA:444,1
DA:445,1
DA:446,1
DA:448,1
DA:450,1
DA:451,0
DA:452,1
DA:455,1
DA:456,1
DA:476,0
DA:477,0
DA:478,0
DA:479,0
DA:481,0
DA:484,0
DA:485,0
DA:486,0
DA:487,0
DA:488,0
DA:489,0
DA:490,0
DA:493,0
DA:495,0
DA:496,0
DA:497,0
DA:498,0
DA:500,0
DA:501,0
DA:502,0
DA:504,0
DA:507,0
DA:508,0
DA:509,0
DA:510,0
DA:512,0
DA:513,0
DA:514,0
DA:515,0
DA:517,0
DA:518,0
DA:519,0
DA:520,0
DA:521,0
DA:522,0
DA:524,0
DA:525,0
DA:526,0
DA:527,0
DA:528,0
DA:529,0
DA:530,0
DA:531,0
DA:534,0
DA:535,0
DA:539,0
DA:541,0
DA:542,0
DA:543,0
DA:546,0
DA:547,0
DA:548,0
DA:549,0
DA:550,0
DA:551,0
DA:552,0
DA:554,0
DA:555,0
DA:556,0
DA:557,0
DA:558,0
DA:559,0
DA:560,0
DA:561,0
DA:565,0
DA:566,0
DA:567,0
DA:568,0
DA:569,0
DA:572,0
DA:573,0
DA:574,0
DA:575,0
DA:577,0
DA:578,0
DA:579,0
DA:585,0
DA:586,0
DA:587,0
DA:588,0
DA:589,0
DA:590,0
DA:591,0
DA:592,0
DA:596,0
DA:597,0
DA:598,0
DA:599,0
DA:600,0
DA:601,0
DA:602,0
DA:603,0
DA:604,0
DA:606,0
DA:607,0
DA:608,0
DA:609,0
DA:610,0
DA:611,0
DA:612,0
DA:613,0
DA:614,0
DA:615,0
DA:619,0
DA:620,0
DA:621,0
DA:630,1
DA:632,1
DA:634,1
DA:636,1
DA:638,1
DA:640,1
DA:642,1
DA:644,1
DA:645,1
DA:646,1
DA:647,1
DA:650,1
DA:652,1
DA:654,1
DA:657,1
DA:659,1
DA:661,1
DA:663,1
DA:664,1
DA:666,1
DA:667,1
DA:668,1
DA:669,1
DA:672,1
DA:674,1
DA:676,1
DA:678,1
DA:680,1
DA:682,1
DA:685,1
DA:688,1
DA:689,1
DA:690,1
DA:691,1
DA:692,1
DA:695,1
DA:696,1
DA:698,1
DA:700,1
DA:702,1
DA:703,1
DA:704,1
DA:705,1
DA:706,1
DA:708,1
DA:709,1
DA:710,1
BRF:0
BRH:0
LF:398
LH:126
end_of_record
SF:C:\Users\esteb\RustroverProjects\Durapack\durapack-core\src\scanner.rs
FN:321,_RNvMNtCs27HJmF5ukpX_13durapack_core7scannerNtB2_9ScanStats13recovery_rate
FN:142,_RNvNtCs27HJmF5ukpX_13durapack_core7scanner11find_marker
FN:49,_RNvNtCs27HJmF5ukpX_13durapack_core7scanner11scan_stream
FN:108,_RNvNtCs27HJmF5ukpX_13durapack_core7scanner18compute_confidence
FN:243,_RNvNtCs27HJmF5ukpX_13durapack_core7scanner20try_decode_at_offset
FN:387,_RNvNtCs27HJmF5ukpX_13durapack_core7scanner21scan_stream_zero_copy
FN:331,_RNvNtCs27HJmF5ukpX_13durapack_core7scanner22scan_stream_with_stats
FN:321,_RNvMNtCsgL3VURY9zOY_13durapack_core7scannerNtB2_9ScanStats13recovery_rate
FN:142,_RNvNtCsgL3VURY9zOY_13durapack_core7scanner11find_marker
FN:49,_RNvNtCsgL3VURY9zOY_13durapack_core7scanner11scan_stream
FN:108,_RNvNtCsgL3VURY9zOY_13durapack_core7scanner18compute_confidence
FN:243,_RNvNtCsgL3VURY9zOY_13durapack_core7scanner20try_decode_at_offset
FN:331,_RNvNtCsgL3VURY9zOY_13durapack_core7scanner22scan_stream_with_stats
FN:387,_RNvNtCsgL3VURY9zOY_13durapack_core7scanner21scan_stream_zero_copy
FN:512,_RNvNtNtCsgL3VURY9zOY_13durapack_core7scanner5testss_15test_scan_stats
FN:425,_RNvNtNtCsgL3VURY9zOY_13durapack_core7scanner5testss_22test_scan_clean_stream
FN:486,_RNvNtNtCsgL3VURY9zOY_13durapack_core7scanner5testss_23test_scan_missing_start
FN:458,_RNvNtNtCsgL3VURY9zOY_13durapack_core7scanner5testss_25test_scan_with_corruption
FNDA:0,_RNvMNtCs27HJmF5ukpX_13durapack_core7scannerNtB2_9ScanStats13recovery_rate
FNDA:1673,_RNvNtCs27HJmF5ukpX_13durapack_core7scanner11find_marker
FNDA:528,_RNvNtCs27HJmF5ukpX_13durapack_core7scanner11scan_stream
FNDA:1304,_RNvNtCs27HJmF5ukpX_13durapack_core7scanner18compute_confidence
FNDA:1416,_RNvNtCs27HJmF5ukpX_13durapack_core7scanner20try_decode_at_offset
FNDA:0,_RNvNtCs27HJmF5ukpX_13durapack_core7scanner21scan_stream_zero_copy
FNDA:0,_RNvNtCs27HJmF5ukpX_13durapack_core7scanner22scan_stream_with_stats
FNDA:1,_RNvMNtCsgL3VURY9zOY_13durapack_core7scannerNtB2_9ScanStats13recovery_rate
FNDA:7,_RNvNtCsgL3VURY9zOY_13durapack_core7scanner11find_marker
FNDA:3,_RNvNtCsgL3VURY9zOY_13durapack_core7scanner11scan_stream
FNDA:7,_RNvNtCsgL3VURY9zOY_13durapack_core7scanner18compute_confidence
FNDA:7,_RNvNtCsgL3VURY9zOY_13durapack_core7scanner20try_decode_at_offset
FNDA:1,_RNvNtCsgL3VURY9zOY_13durapack_core7scanner22scan_stream_with_stats
FNDA:0,_RNvNtCsgL3VURY9zOY_13durapack_core7scanner21scan_stream_zero_copy
FNDA:1,_RNvNtNtCsgL3VURY9zOY_13durapack_core7scanner5testss_15test_scan_stats
FNDA:1,_RNvNtNtCsgL3VURY9zOY_13durapack_core7scanner5testss_22test_scan_clean_stream
FNDA:1,_RNvNtNtCsgL3VURY9zOY_13durapack_core7scanner5testss_23test_scan_missing_start
FNDA:1,_RNvNtNtCsgL3VURY9zOY_13durapack_core7scanner5testss_25test_scan_with_corruption
FNF:11
FNH:10
DA:49,531
DA:50,531
DA:51,531
DA:54,531
DA:56,1953
DA:58,1679
DA:59,1422
DA:62,1422
DA:65,1422
DA:66,1310
DA:68,1310
DA:71,1310
DA:72,0
DA:80,1310
DA:81,1310
DA:83,112
DA:85,112
DA:88,112
DA:93,257
DA:98,531
DA:99,0
DA:100,0
DA:101,0
DA:104,531
DA:105,531
DA:108,1311
DA:109,1311
DA:112,1311
DA:113,1311
DA:114,1311
DA:115,0
DA:116,0
DA:118,1311
DA:119,0
DA:120,1311
DA:121,1311
DA:122,0
DA:123,1311
DA:127,1311
DA:128,15
DA:129,1274
DA:130,22
DA:134,1311
DA:135,1311
DA:136,1311
DA:138,1311
DA:139,1311
DA:142,1680
DA:146,1680
DA:147,1680
DA:148,1423
DA:149,1423
DA:150,1423
DA:151,1423
DA:152,1423
DA:153,1423
DA:154,257
DA:155,0
DA:158,257
DA:159,257
DA:161,0
DA:162,0
DA:163,0
DA:165,0
DA:166,0
DA:167,0
DA:168,0
DA:169,0
DA:170,0
DA:171,0
DA:172,257
DA:173,0
DA:176,257
DA:177,257
DA:179,256
DA:180,1066398
DA:182,1066142
DA:183,1066142
DA:184,1066142
DA:185,1070380
DA:186,1070380
DA:187,4238
DA:188,4238
DA:189,4218
DA:191,20
DA:193,4238
DA:195,1066142
DA:198,1066142
DA:199,0
DA:200,0
DA:201,0
DA:203,0
DA:204,0
DA:205,0
DA:206,0
DA:207,0
DA:208,0
DA:209,0
DA:210,0
DA:211,1066142
DA:212,1066142
DA:213,1066142
DA:215,1
DA:218,257
DA:219,257
DA:220,1065639
DA:221,1065639
DA:222,1103003
DA:223,1103003
DA:224,1103003
DA:225,1065639
DA:226,37364
DA:228,1065639
DA:229,0
DA:230,0
DA:231,0
DA:232,0
DA:233,0
DA:234,0
DA:235,1065639
DA:237,0
DA:239,257
DA:240,1680
DA:243,1423
DA:244,1423
DA:245,1423
DA:246,1423
DA:248,1423
DA:249,0
DA:250,0
DA:251,0
DA:252,0
DA:253,1423
DA:256,1423
DA:257,1423
DA:258,1423
DA:259,1423
DA:260,1423
DA:261,1423
DA:262,1423
DA:265,1423
DA:266,1423
DA:267,1423
DA:270,1423
DA:273,1423
DA:274,112
DA:275,112
DA:276,112
DA:277,112
DA:278,1311
DA:281,1311
DA:282,0
DA:283,0
DA:284,0
DA:285,0
DA:286,1311
DA:289,1311
DA:290,1311
DA:292,1311
DA:293,1311
DA:294,1311
DA:295,1311
DA:296,1311
DA:297,1311
DA:298,1423
DA:321,1
DA:322,1
DA:323,0
DA:325,1
DA:327,1
DA:331,1
DA:332,1
DA:333,1
DA:334,1
DA:335,1
DA:337,1
DA:338,1
DA:340,2
DA:341,1
DA:342,1
DA:343,1
DA:345,1
DA:346,1
DA:347,1
DA:348,1
DA:349,1
DA:350,1
DA:351,1
DA:352,0
DA:353,0
DA:354,0
DA:355,0
DA:358,0
DA:363,1
DA:364,0
DA:365,0
DA:366,0
DA:367,0
DA:368,0
DA:370,0
DA:372,0
DA:373,0
DA:374,0
DA:376,0
DA:377,0
DA:378,0
DA:381,1
DA:383,1
DA:384,1
DA:387,0
DA:388,0
DA:389,0
DA:390,0
DA:391,0
DA:392,0
DA:394,0
DA:395,0
DA:396,0
DA:397,0
DA:398,0
DA:399,0
DA:400,0
DA:401,0
DA:402,0
DA:403,0
DA:404,0
DA:405,0
DA:407,0
DA:409,0
DA:412,0
DA:415,0
DA:416,0
DA:425,1
DA:427,1
DA:428,1
DA:429,1
DA:430,1
DA:431,1
DA:433,1
DA:434,1
DA:435,1
DA:436,1
DA:438,1
DA:439,1
DA:440,1
DA:441,1
DA:442,1
DA:444,1
DA:445,1
DA:446,1
DA:447,1
DA:449,1
DA:451,1
DA:452,1
DA:453,1
DA:454,1
DA:455,1
DA:458,1
DA:460,1
DA:461,1
DA:462,1
DA:463,1
DA:464,1
DA:466,1
DA:467,1
DA:468,1
DA:469,1
DA:470,1
DA:472,1
DA:473,1
DA:474,1
DA:475,1
DA:477,1
DA:480,1
DA:481,1
DA:482,1
DA:483,1
DA:486,1
DA:488,1
DA:489,1
DA:490,1
DA:491,1
DA:493,1
DA:494,1
DA:495,1
DA:496,1
DA:498,1
DA:499,1
DA:500,1
DA:503,1
DA:505,1
DA:508,1
DA:509,1
DA:512,1
DA:513,1
DA:514,1
DA:515,1
DA:516,1
DA:518,1
DA:520,1
DA:521,1
DA:522,1
DA:523,1
DA:524,1
BRF:0
BRH:0
LF:304
LH:217
end_of_record
SF:C:\Users\esteb\RustroverProjects\Durapack\durapack-core\src\types.rs
FN:45,_RNvMNtCs27HJmF5ukpX_13durapack_core5typesNtB2_11FrameHeader10with_flags
FN:34,_RNvMNtCs27HJmF5ukpX_13durapack_core5typesNtB2_11FrameHeader3new
FN:77,_RNvMNtCs27HJmF5ukpX_13durapack_core5typesNtB2_11FrameHeader8is_first
FN:61,_RNvMNtCs27HJmF5ukpX_13durapack_core5typesNtB2_11FrameHeader8validate
FN:166,_RNvMs_NtCs27HJmF5ukpX_13durapack_core5typesNtB4_5Frame10total_size
FN:183,_RNvMs_NtCs27HJmF5ukpX_13durapack_core5typesNtB4_5Frame12compute_hash
FN:140,_RNvMs_NtCs27HJmF5ukpX_13durapack_core5typesNtB4_5Frame12with_trailer
FN:129,_RNvMs_NtCs27HJmF5ukpX_13durapack_core5typesNtB4_5Frame3new
FN:173,_RNvMs_NtCs27HJmF5ukpX_13durapack_core5typesNtB4_5Frame8frame_id
FN:151,_RNvMs_NtCs27HJmF5ukpX_13durapack_core5typesNtB4_5Frame8validate
FN:178,_RNvMs_NtCs27HJmF5ukpX_13durapack_core5typesNtB4_5Frame9prev_hash
FN:169,_RNCNvMs_NtCs27HJmF5ukpX_13durapack_core5typesNtB6_5Frame10total_size0B8_
FN:241,_RNCNvXs2_NtCs27HJmF5ukpX_13durapack_core5typesNtNtCsaIpAL4IJ0cD_5alloc6string6StringNtB7_20DurapackSerializable12from_payload0B9_
FN:226,_RNvXs1_NtCs27HJmF5ukpX_13durapack_core5typesNtNtCsh8Ezac2gIsE_5bytes5bytes5BytesNtB5_20DurapackSerializable10to_payload
FN:230,_RNvXs1_NtCs27HJmF5ukpX_13durapack_core5typesNtNtCsh8Ezac2gIsE_5bytes5bytes5BytesNtB5_20DurapackSerializable12from_payload
FN:216,_RNvXs0_NtCs27HJmF5ukpX_13durapack_core5typesINtNtCsaIpAL4IJ0cD_5alloc3vec3VechENtB5_20DurapackSerializable10to_payload
FN:220,_RNvXs0_NtCs27HJmF5ukpX_13durapack_core5typesINtNtCsaIpAL4IJ0cD_5alloc3vec3VechENtB5_20DurapackSerializable12from_payload
FN:236,_RNvXs2_NtCs27HJmF5ukpX_13durapack_core5typesNtNtCsaIpAL4IJ0cD_5alloc6string6StringNtB5_20DurapackSerializable10to_payload
FN:240,_RNvXs2_NtCs27HJmF5ukpX_13durapack_core5typesNtNtCsaIpAL4IJ0cD_5alloc6string6StringNtB5_20DurapackSerializable12from_payload
FN:45,_RNvMNtCsgL3VURY9zOY_13durapack_core5typesNtB2_11FrameHeader10with_flags
FN:34,_RNvMNtCsgL3VURY9zOY_13durapack_core5typesNtB2_11FrameHeader3new
FN:77,_RNvMNtCsgL3VURY9zOY_13durapack_core5typesNtB2_11FrameHeader8is_first
FN:61,_RNvMNtCsgL3VURY9zOY_13durapack_core5typesNtB2_11FrameHeader8validate
FN:183,_RNvMs_NtCsgL3VURY9zOY_13durapack_core5typesNtB4_5Frame12compute_hash
FN:140,_RNvMs_NtCsgL3VURY9zOY_13durapack_core5typesNtB4_5Frame12with_trailer
FN:129,_RNvMs_NtCsgL3VURY9zOY_13durapack_core5typesNtB4_5Frame3new
FN:169,_RNCNvMs_NtCsgL3VURY9zOY_13durapack_core5typesNtB6_5Frame10total_size0B8_
FN:241,_RNCNvXs2_NtCsgL3VURY9zOY_13durapack_core5typesNtNtCsaIpAL4IJ0cD_5alloc6string6StringNtB7_20DurapackSerializable12from_payload0B9_
FN:166,_RNvMs_NtCsgL3VURY9zOY_13durapack_core5typesNtB4_5Frame10total_size
FN:173,_RNvMs_NtCsgL3VURY9zOY_13durapack_core5typesNtB4_5Frame8frame_id
FN:151,_RNvMs_NtCsgL3VURY9zOY_13durapack_core5typesNtB4_5Frame8validate
FN:178,_RNvMs_NtCsgL3VURY9zOY_13durapack_core5typesNtB4_5Frame9prev_hash
FN:216,_RNvXs0_NtCsgL3VURY9zOY_13durapack_core5typesINtNtCsaIpAL4IJ0cD_5alloc3vec3VechENtB5_20DurapackSerializable10to_payload
FN:220,_RNvXs0_NtCsgL3VURY9zOY_13durapack_core5typesINtNtCsaIpAL4IJ0cD_5alloc3vec3VechENtB5_20DurapackSerializable12from_payload
FN:226,_RNvXs1_NtCsgL3VURY9zOY_13durapack_core5typesNtNtCsh8Ezac2gIsE_5bytes5bytes5BytesNtB5_20DurapackSerializable10to_payload
FN:230,_RNvXs1_NtCsgL3VURY9zOY_13durapack_core5typesNtNtCsh8Ezac2gIsE_5bytes5bytes5BytesNtB5_20DurapackSerializable12from_payload
FN:236,_RNvXs2_NtCsgL3VURY9zOY_13durapack_core5typesNtNtCsaIpAL4IJ0cD_5alloc6string6StringNtB5_20DurapackSerializable10to_payload
FN:240,_RNvXs2_NtCsgL3VURY9zOY_13durapack_core5typesNtNtCsaIpAL4IJ0cD_5alloc6string6StringNtB5_20DurapackSerializable12from_payload
FNDA:3532,_RNvMNtCs27HJmF5ukpX_13durapack_core5typesNtB2_11FrameHeader10with_flags
FNDA:259,_RNvMNtCs27HJmF5ukpX_13durapack_core5typesNtB2_11FrameHeader3new
FNDA:30,_RNvMNtCs27HJmF5ukpX_13durapack_core5typesNtB2_11FrameHeader8is_first
FNDA:3830,_RNvMNtCs27HJmF5ukpX_13durapack_core5typesNtB2_11FrameHeader8validate
FNDA:0,_RNvMs_NtCs27HJmF5ukpX_13durapack_core5typesNtB4_5Frame10total_size
FNDA:70,_RNvMs_NtCs27HJmF5ukpX_13durapack_core5typesNtB4_5Frame12compute_hash
FNDA:1561,_RNvMs_NtCs27HJmF5ukpX_13durapack_core5typesNtB4_5Frame12with_trailer
FNDA:42,_RNvMs_NtCs27HJmF5ukpX_13durapack_core5typesNtB4_5Frame3new
FNDA:0,_RNvMs_NtCs27HJmF5ukpX_13durapack_core5typesNtB4_5Frame8frame_id
FNDA:0,_RNvMs_NtCs27HJmF5ukpX_13durapack_core5typesNtB4_5Frame8validate
FNDA:0,_RNvMs_NtCs27HJmF5ukpX_13durapack_core5typesNtB4_5Frame9prev_hash
FNDA:0,_RNCNvMs_NtCs27HJmF5ukpX_13durapack_core5typesNtB6_5Frame10total_size0B8_
FNDA:0,_RNCNvXs2_NtCs27HJmF5ukpX_13durapack_core5typesNtNtCsaIpAL4IJ0cD_5alloc6string6StringNtB7_20DurapackSerializable12from_payload0B9_
FNDA:0,_RNvXs1_NtCs27HJmF5ukpX_13durapack_core5typesNtNtCsh8Ezac2gIsE_5bytes5bytes5BytesNtB5_20DurapackSerializable10to_payload
FNDA:0,_RNvXs1_NtCs27HJmF5ukpX_13durapack_core5typesNtNtCsh8Ezac2gIsE_5bytes5bytes5BytesNtB5_20DurapackSerializable12from_payload
FNDA:0,_RNvXs0_NtCs27HJmF5ukpX_13durapack_core5typesINtNtCsaIpAL4IJ0cD_5alloc3vec3VechENtB5_20DurapackSerializable10to_payload
FNDA:0,_RNvXs0_NtCs27HJmF5ukpX_13durapack_core5typesINtNtCsaIpAL4IJ0cD_5alloc3vec3VechENtB5_20DurapackSerializable12from_payload
FNDA:0,_RNvXs2_NtCs27HJmF5ukpX_13durapack_core5typesNtNtCsaIpAL4IJ0cD_5alloc6string6StringNtB5_20DurapackSerializable10to_payload
FNDA:0,_RNvXs2_NtCs27HJmF5ukpX_13durapack_core5typesNtNtCsaIpAL4IJ0cD_5alloc6string6StringNtB5_20DurapackSerializable12from_payload
FNDA:22,_RNvMNtCsgL3VURY9zOY_13durapack_core5typesNtB2_11FrameHeader10with_flags
FNDA:16,_RNvMNtCsgL3VURY9zOY_13durapack_core5typesNtB2_11FrameHeader3new
FNDA:8,_RNvMNtCsgL3VURY9zOY_13durapack_core5typesNtB2_11FrameHeader8is_first
FNDA:24,_RNvMNtCsgL3VURY9zOY_13durapack_core5typesNtB2_11FrameHeader8validate
FNDA:15,_RNvMs_NtCsgL3VURY9zOY_13durapack_core5typesNtB4_5Frame12compute_hash
FNDA:10,_RNvMs_NtCsgL3VURY9zOY_13durapack_core5typesNtB4_5Frame12with_trailer
FNDA:14,_RNvMs_NtCsgL3VURY9zOY_13durapack_core5typesNtB4_5Frame3new
FNDA:0,_RNCNvMs_NtCsgL3VURY9zOY_13durapack_core5typesNtB6_5Frame10total_size0B8_
FNDA:0,_RNCNvXs2_NtCsgL3VURY9zOY_13durapack_core5typesNtNtCsaIpAL4IJ0cD_5alloc6string6StringNtB7_20DurapackSerializable12from_payload0B9_
FNDA:0,_RNvMs_NtCsgL3VURY9zOY_13durapack_core5typesNtB4_5Frame10total_size
FNDA:0,_RNvMs_NtCsgL3VURY9zOY_13durapack_core5typesNtB4_5Frame8frame_id
FNDA:0,_RNvMs_NtCsgL3VURY9zOY_13durapack_core5typesNtB4_5Frame8validate
FNDA:0,_RNvMs_NtCsgL3VURY9zOY_13durapack_core5typesNtB4_5Frame9prev_hash
FNDA:0,_RNvXs0_NtCsgL3VURY9zOY_13durapack_core5typesINtNtCsaIpAL4IJ0cD_5alloc3vec3VechENtB5_20DurapackSerializable10to_payload
FNDA:0,_RNvXs0_NtCsgL3VURY9zOY_13durapack_core5typesINtNtCsaIpAL4IJ0cD_5alloc3vec3VechENtB5_20DurapackSerializable12from_payload
FNDA:0,_RNvXs1_NtCsgL3VURY9zOY_13durapack_core5typesNtNtCsh8Ezac2gIsE_5bytes5bytes5BytesNtB5_20DurapackSerializable10to_payload
FNDA:0,_RNvXs1_NtCsgL3VURY9zOY_13durapack_core5typesNtNtCsh8Ezac2gIsE_5bytes5bytes5BytesNtB5_20DurapackSerializable12from_payload
FNDA:0,_RNvXs2_NtCsgL3VURY9zOY_13durapack_core5typesNtNtCsaIpAL4IJ0cD_5alloc6string6StringNtB5_20DurapackSerializable10to_payload
FNDA:0,_RNvXs2_NtCsgL3VURY9zOY_13durapack_core5typesNtNtCsaIpAL4IJ0cD_5alloc6string6StringNtB5_20DurapackSerializable12from_payload
FNF:19
FNH:7
DA:34,275
DA:35,275
DA:36,275
DA:37,275
DA:38,275
DA:39,275
DA:40,275
DA:41,275
DA:42,275
DA:45,3554
DA:46,3554
DA:47,3554
DA:48,3554
DA:49,3554
DA:50,3554
DA:51,3554
DA:52,3554
DA:53,3554
DA:54,3554
DA:55,3554
DA:56,3554
DA:57,3554
DA:58,3554
DA:61,3854
DA:62,3854
DA:63,0
DA:64,3854
DA:66,3854
DA:67,256
DA:68,256
DA:69,256
DA:70,256
DA:71,3598
DA:73,3598
DA:74,3854
DA:77,38
DA:78,38
DA:79,38
DA:129,56
DA:130,56
DA:131,56
DA:132,56
DA:133,56
DA:134,56
DA:135,56
DA:136,56
DA:137,56
DA:140,1571
DA:141,1571
DA:142,1571
DA:143,1571
DA:144,1571
DA:145,1571
DA:146,1571
DA:147,1571
DA:148,1571
DA:151,0
DA:152,0
DA:154,0
DA:155,0
DA:156,0
DA:157,0
DA:158,0
DA:159,0
DA:160,0
DA:162,0
DA:163,0
DA:166,0
DA:167,0
DA:168,0
DA:169,0
DA:170,0
DA:173,0
DA:174,0
DA:175,0
DA:178,0
DA:179,0
DA:180,0
DA:183,85
DA:184,85
DA:187,85
DA:188,85
DA:189,85
DA:190,85
DA:191,85
DA:194,85
DA:196,85
DA:197,85
DA:198,85
DA:199,85
DA:200,85
DA:216,0
DA:217,0
DA:218,0
DA:220,0
DA:221,0
DA:222,0
DA:226,0
DA:227,0
DA:228,0
DA:230,0
DA:231,0
DA:232,0
DA:236,0
DA:237,0
DA:238,0
DA:240,0
DA:241,0
DA:242,0
BRF:0
BRH:0
LF:111
LH:68
end_of_record
SF:C:\Users\esteb\RustroverProjects\Durapack\durapack-fuzz\src\lib.rs
FN:7,_RNvCshWluUiBQfvf_13durapack_fuzz11fuzz_decode
FN:14,_RNvCshWluUiBQfvf_13durapack_fuzz9fuzz_scan
FN:36,_RNvNtCshWluUiBQfvf_13durapack_fuzz5testss_20test_fuzz_scan_empty
FN:41,_RNvNtCshWluUiBQfvf_13durapack_fuzz5testss_21test_fuzz_scan_random
FN:26,_RNvNtCshWluUiBQfvf_13durapack_fuzz5testss_22test_fuzz_decode_empty
FN:31,_RNvNtCshWluUiBQfvf_13durapack_fuzz5testss_23test_fuzz_decode_random
FNDA:2,_RNvCshWluUiBQfvf_13durapack_fuzz11fuzz_decode
FNDA:2,_RNvCshWluUiBQfvf_13durapack_fuzz9fuzz_scan
FNDA:1,_RNvNtCshWluUiBQfvf_13durapack_fuzz5testss_20test_fuzz_scan_empty
FNDA:1,_RNvNtCshWluUiBQfvf_13durapack_fuzz5testss_21test_fuzz_scan_random
FNDA:1,_RNvNtCshWluUiBQfvf_13durapack_fuzz5testss_22test_fuzz_decode_empty
FNDA:1,_RNvNtCshWluUiBQfvf_13durapack_fuzz5testss_23test_fuzz_decode_random
FNF:6
FNH:6
DA:7,2
DA:11,2
DA:12,2
DA:14,2
DA:18,2
DA:19,2
DA:26,1
DA:27,1
DA:28,1
DA:31,1
DA:32,1
DA:33,1
DA:36,1
DA:37,1
DA:38,1
DA:41,1
DA:42,1
DA:43,1
BRF:0
BRH:0
LF:18
LH:18
end_of_record